ARM GAS  C:\Users\jacki\AppData\Local\Temp\cctmZXai.s 			page 1


   1              		.cpu cortex-m4
   2              		.arch armv7e-m
   3              		.fpu fpv4-sp-d16
   4              		.eabi_attribute 27, 1
   5              		.eabi_attribute 28, 1
   6              		.eabi_attribute 20, 1
   7              		.eabi_attribute 21, 1
   8              		.eabi_attribute 23, 3
   9              		.eabi_attribute 24, 1
  10              		.eabi_attribute 25, 1
  11              		.eabi_attribute 26, 1
  12              		.eabi_attribute 30, 1
  13              		.eabi_attribute 34, 1
  14              		.eabi_attribute 18, 4
  15              		.file	"BNO055.c"
  16              		.text
  17              	.Ltext0:
  18              		.cfi_sections	.debug_frame
  19              		.section	.text.BNO055_Write,"ax",%progbits
  20              		.align	1
  21              		.syntax unified
  22              		.thumb
  23              		.thumb_func
  25              	BNO055_Write:
  26              	.LVL0:
  27              	.LFB131:
  28              		.file 1 "Core/Src/BNO055.c"
   1:Core/Src/BNO055.c **** /*
   2:Core/Src/BNO055.c ****  * BNO055.c
   3:Core/Src/BNO055.c ****  *
   4:Core/Src/BNO055.c ****  *  Created on: Sep 4, 2023
   5:Core/Src/BNO055.c ****  *      Author: baske
   6:Core/Src/BNO055.c ****  */
   7:Core/Src/BNO055.c **** 
   8:Core/Src/BNO055.c **** 
   9:Core/Src/BNO055.c **** #include "BNO055.h"
  10:Core/Src/BNO055.c **** #include "BNO055_Regs.h"
  11:Core/Src/BNO055.c **** 
  12:Core/Src/BNO055.c **** I2C_HandleTypeDef* BNO055_I2C;
  13:Core/Src/BNO055.c **** 
  14:Core/Src/BNO055.c **** #ifdef BNO055_HARDWARE_RESET
  15:Core/Src/BNO055.c **** 
  16:Core/Src/BNO055.c **** uint32_t Reset_Port = 0;
  17:Core/Src/BNO055.c **** uint16_t Reset_Pin = 0;
  18:Core/Src/BNO055.c **** 
  19:Core/Src/BNO055.c **** #endif
  20:Core/Src/BNO055.c **** 
  21:Core/Src/BNO055.c **** /*
  22:Core/Src/BNO055.c ****  * Local Read Function to BNO055
  23:Core/Src/BNO055.c ****  */
  24:Core/Src/BNO055.c **** static HAL_StatusTypeDef BNO055_Read(uint8_t reg, uint8_t* buf, uint8_t len){
  25:Core/Src/BNO055.c **** 
  26:Core/Src/BNO055.c **** 	HAL_StatusTypeDef error;
  27:Core/Src/BNO055.c **** 
  28:Core/Src/BNO055.c **** 	error = HAL_I2C_Master_Transmit(BNO055_I2C, BNO055_I2C_ADDR<<1, &reg, 1, BNO055_WRITE_TIMEOUT);
  29:Core/Src/BNO055.c **** 	error |= HAL_I2C_Master_Receive(BNO055_I2C, BNO055_I2C_ADDR<<1, buf, len, BNO055_READ_TIMEOUT);
  30:Core/Src/BNO055.c **** 
ARM GAS  C:\Users\jacki\AppData\Local\Temp\cctmZXai.s 			page 2


  31:Core/Src/BNO055.c **** 	return error;
  32:Core/Src/BNO055.c **** 
  33:Core/Src/BNO055.c **** }
  34:Core/Src/BNO055.c **** 
  35:Core/Src/BNO055.c **** /*
  36:Core/Src/BNO055.c ****  * Local Write Function to BNO055
  37:Core/Src/BNO055.c ****  */
  38:Core/Src/BNO055.c **** static HAL_StatusTypeDef BNO055_Write(uint8_t reg, uint8_t data){
  29              		.loc 1 38 65 view -0
  30              		.cfi_startproc
  31              		@ args = 0, pretend = 0, frame = 8
  32              		@ frame_needed = 0, uses_anonymous_args = 0
  33              		.loc 1 38 65 is_stmt 0 view .LVU1
  34 0000 00B5     		push	{lr}
  35              		.cfi_def_cfa_offset 4
  36              		.cfi_offset 14, -4
  37 0002 85B0     		sub	sp, sp, #20
  38              		.cfi_def_cfa_offset 24
  39:Core/Src/BNO055.c **** 
  40:Core/Src/BNO055.c **** 	HAL_StatusTypeDef error;
  39              		.loc 1 40 2 is_stmt 1 view .LVU2
  41:Core/Src/BNO055.c **** 	uint8_t transmitBuf[2] = {reg, data};
  40              		.loc 1 41 2 view .LVU3
  41              		.loc 1 41 10 is_stmt 0 view .LVU4
  42 0004 8DF80C00 		strb	r0, [sp, #12]
  43 0008 8DF80D10 		strb	r1, [sp, #13]
  42:Core/Src/BNO055.c **** 
  43:Core/Src/BNO055.c **** 	error = HAL_I2C_Master_Transmit(BNO055_I2C, BNO055_I2C_ADDR<<1, transmitBuf, sizeof(transmitBuf), 
  44              		.loc 1 43 2 is_stmt 1 view .LVU5
  45              		.loc 1 43 10 is_stmt 0 view .LVU6
  46 000c 6423     		movs	r3, #100
  47 000e 0093     		str	r3, [sp]
  48 0010 0223     		movs	r3, #2
  49 0012 03AA     		add	r2, sp, #12
  50 0014 5021     		movs	r1, #80
  51              	.LVL1:
  52              		.loc 1 43 10 view .LVU7
  53 0016 0348     		ldr	r0, .L3
  54              	.LVL2:
  55              		.loc 1 43 10 view .LVU8
  56 0018 0068     		ldr	r0, [r0]
  57 001a FFF7FEFF 		bl	HAL_I2C_Master_Transmit
  58              	.LVL3:
  44:Core/Src/BNO055.c **** 
  45:Core/Src/BNO055.c **** 	return error;
  59              		.loc 1 45 2 is_stmt 1 view .LVU9
  46:Core/Src/BNO055.c **** 
  47:Core/Src/BNO055.c **** }
  60              		.loc 1 47 1 is_stmt 0 view .LVU10
  61 001e 05B0     		add	sp, sp, #20
  62              		.cfi_def_cfa_offset 4
  63              		@ sp needed
  64 0020 5DF804FB 		ldr	pc, [sp], #4
  65              	.L4:
  66              		.align	2
  67              	.L3:
  68 0024 00000000 		.word	.LANCHOR0
ARM GAS  C:\Users\jacki\AppData\Local\Temp\cctmZXai.s 			page 3


  69              		.cfi_endproc
  70              	.LFE131:
  72              		.section	.text.BNO055_Read,"ax",%progbits
  73              		.align	1
  74              		.syntax unified
  75              		.thumb
  76              		.thumb_func
  78              	BNO055_Read:
  79              	.LVL4:
  80              	.LFB130:
  24:Core/Src/BNO055.c **** 
  81              		.loc 1 24 77 is_stmt 1 view -0
  82              		.cfi_startproc
  83              		@ args = 0, pretend = 0, frame = 8
  84              		@ frame_needed = 0, uses_anonymous_args = 0
  24:Core/Src/BNO055.c **** 
  85              		.loc 1 24 77 is_stmt 0 view .LVU12
  86 0000 2DE9F041 		push	{r4, r5, r6, r7, r8, lr}
  87              		.cfi_def_cfa_offset 24
  88              		.cfi_offset 4, -24
  89              		.cfi_offset 5, -20
  90              		.cfi_offset 6, -16
  91              		.cfi_offset 7, -12
  92              		.cfi_offset 8, -8
  93              		.cfi_offset 14, -4
  94 0004 84B0     		sub	sp, sp, #16
  95              		.cfi_def_cfa_offset 40
  96 0006 0D46     		mov	r5, r1
  97 0008 1646     		mov	r6, r2
  98 000a 8DF80F00 		strb	r0, [sp, #15]
  26:Core/Src/BNO055.c **** 
  99              		.loc 1 26 2 is_stmt 1 view .LVU13
  28:Core/Src/BNO055.c **** 	error |= HAL_I2C_Master_Receive(BNO055_I2C, BNO055_I2C_ADDR<<1, buf, len, BNO055_READ_TIMEOUT);
 100              		.loc 1 28 2 view .LVU14
  28:Core/Src/BNO055.c **** 	error |= HAL_I2C_Master_Receive(BNO055_I2C, BNO055_I2C_ADDR<<1, buf, len, BNO055_READ_TIMEOUT);
 101              		.loc 1 28 10 is_stmt 0 view .LVU15
 102 000e 0D4F     		ldr	r7, .L7
 103 0010 4FF06408 		mov	r8, #100
 104 0014 CDF80080 		str	r8, [sp]
 105 0018 0123     		movs	r3, #1
 106 001a 0DF10F02 		add	r2, sp, #15
 107              	.LVL5:
  28:Core/Src/BNO055.c **** 	error |= HAL_I2C_Master_Receive(BNO055_I2C, BNO055_I2C_ADDR<<1, buf, len, BNO055_READ_TIMEOUT);
 108              		.loc 1 28 10 view .LVU16
 109 001e 5021     		movs	r1, #80
 110              	.LVL6:
  28:Core/Src/BNO055.c **** 	error |= HAL_I2C_Master_Receive(BNO055_I2C, BNO055_I2C_ADDR<<1, buf, len, BNO055_READ_TIMEOUT);
 111              		.loc 1 28 10 view .LVU17
 112 0020 3868     		ldr	r0, [r7]
 113              	.LVL7:
  28:Core/Src/BNO055.c **** 	error |= HAL_I2C_Master_Receive(BNO055_I2C, BNO055_I2C_ADDR<<1, buf, len, BNO055_READ_TIMEOUT);
 114              		.loc 1 28 10 view .LVU18
 115 0022 FFF7FEFF 		bl	HAL_I2C_Master_Transmit
 116              	.LVL8:
  28:Core/Src/BNO055.c **** 	error |= HAL_I2C_Master_Receive(BNO055_I2C, BNO055_I2C_ADDR<<1, buf, len, BNO055_READ_TIMEOUT);
 117              		.loc 1 28 10 view .LVU19
 118 0026 0446     		mov	r4, r0
ARM GAS  C:\Users\jacki\AppData\Local\Temp\cctmZXai.s 			page 4


 119              	.LVL9:
  29:Core/Src/BNO055.c **** 
 120              		.loc 1 29 2 is_stmt 1 view .LVU20
  29:Core/Src/BNO055.c **** 
 121              		.loc 1 29 11 is_stmt 0 view .LVU21
 122 0028 CDF80080 		str	r8, [sp]
 123 002c 3346     		mov	r3, r6
 124 002e 2A46     		mov	r2, r5
 125 0030 5021     		movs	r1, #80
 126 0032 3868     		ldr	r0, [r7]
 127 0034 FFF7FEFF 		bl	HAL_I2C_Master_Receive
 128              	.LVL10:
  29:Core/Src/BNO055.c **** 
 129              		.loc 1 29 8 view .LVU22
 130 0038 2043     		orrs	r0, r0, r4
 131              	.LVL11:
  31:Core/Src/BNO055.c **** 
 132              		.loc 1 31 2 is_stmt 1 view .LVU23
  33:Core/Src/BNO055.c **** 
 133              		.loc 1 33 1 is_stmt 0 view .LVU24
 134 003a C0B2     		uxtb	r0, r0
  33:Core/Src/BNO055.c **** 
 135              		.loc 1 33 1 view .LVU25
 136 003c 04B0     		add	sp, sp, #16
 137              		.cfi_def_cfa_offset 24
 138              		@ sp needed
 139 003e BDE8F081 		pop	{r4, r5, r6, r7, r8, pc}
 140              	.LVL12:
 141              	.L8:
  33:Core/Src/BNO055.c **** 
 142              		.loc 1 33 1 view .LVU26
 143 0042 00BF     		.align	2
 144              	.L7:
 145 0044 00000000 		.word	.LANCHOR0
 146              		.cfi_endproc
 147              	.LFE130:
 149              		.section	.text.BNO055_ERROR_HANDLE,"ax",%progbits
 150              		.align	1
 151              		.syntax unified
 152              		.thumb
 153              		.thumb_func
 155              	BNO055_ERROR_HANDLE:
 156              	.LVL13:
 157              	.LFB132:
  48:Core/Src/BNO055.c **** 
  49:Core/Src/BNO055.c **** /*
  50:Core/Src/BNO055.c ****  * Simple Error Check Function
  51:Core/Src/BNO055.c ****  */
  52:Core/Src/BNO055.c **** static void BNO055_ERROR_HANDLE(HAL_StatusTypeDef error){
 158              		.loc 1 52 57 is_stmt 1 view -0
 159              		.cfi_startproc
 160              		@ args = 0, pretend = 0, frame = 0
 161              		@ frame_needed = 0, uses_anonymous_args = 0
  53:Core/Src/BNO055.c **** 	if(error != HAL_OK){
 162              		.loc 1 53 2 view .LVU28
 163              		.loc 1 53 4 is_stmt 0 view .LVU29
 164 0000 00B9     		cbnz	r0, .L15
ARM GAS  C:\Users\jacki\AppData\Local\Temp\cctmZXai.s 			page 5


 165 0002 7047     		bx	lr
 166              	.L15:
  52:Core/Src/BNO055.c **** 	if(error != HAL_OK){
 167              		.loc 1 52 57 view .LVU30
 168 0004 08B5     		push	{r3, lr}
 169              		.cfi_def_cfa_offset 8
 170              		.cfi_offset 3, -8
 171              		.cfi_offset 14, -4
  54:Core/Src/BNO055.c **** 		HAL_GPIO_WritePin(LD2_GPIO_Port, LD2_Pin, GPIO_PIN_SET);
 172              		.loc 1 54 3 is_stmt 1 view .LVU31
 173 0006 0122     		movs	r2, #1
 174 0008 2021     		movs	r1, #32
 175 000a 0248     		ldr	r0, .L16
 176              	.LVL14:
 177              		.loc 1 54 3 is_stmt 0 view .LVU32
 178 000c FFF7FEFF 		bl	HAL_GPIO_WritePin
 179              	.LVL15:
 180              	.L11:
  55:Core/Src/BNO055.c **** 		while(1);
 181              		.loc 1 55 3 is_stmt 1 discriminator 1 view .LVU33
 182              		.loc 1 55 8 discriminator 1 view .LVU34
 183 0010 FEE7     		b	.L11
 184              	.L17:
 185 0012 00BF     		.align	2
 186              	.L16:
 187 0014 00000240 		.word	1073872896
 188              		.cfi_endproc
 189              	.LFE132:
 191              		.section	.text.BNO055_I2C_Mount,"ax",%progbits
 192              		.align	1
 193              		.global	BNO055_I2C_Mount
 194              		.syntax unified
 195              		.thumb
 196              		.thumb_func
 198              	BNO055_I2C_Mount:
 199              	.LVL16:
 200              	.LFB133:
  56:Core/Src/BNO055.c **** 	}
  57:Core/Src/BNO055.c **** }
  58:Core/Src/BNO055.c **** 
  59:Core/Src/BNO055.c **** /*
  60:Core/Src/BNO055.c ****  * Allow User to Mount I2C Handle
  61:Core/Src/BNO055.c ****  */
  62:Core/Src/BNO055.c **** void BNO055_I2C_Mount(I2C_HandleTypeDef* i2c){
 201              		.loc 1 62 46 view -0
 202              		.cfi_startproc
 203              		@ args = 0, pretend = 0, frame = 0
 204              		@ frame_needed = 0, uses_anonymous_args = 0
 205              		@ link register save eliminated.
  63:Core/Src/BNO055.c **** 	BNO055_I2C = i2c;
 206              		.loc 1 63 2 view .LVU36
 207              		.loc 1 63 13 is_stmt 0 view .LVU37
 208 0000 014B     		ldr	r3, .L19
 209 0002 1860     		str	r0, [r3]
  64:Core/Src/BNO055.c **** }
 210              		.loc 1 64 1 view .LVU38
 211 0004 7047     		bx	lr
ARM GAS  C:\Users\jacki\AppData\Local\Temp\cctmZXai.s 			page 6


 212              	.L20:
 213 0006 00BF     		.align	2
 214              	.L19:
 215 0008 00000000 		.word	.LANCHOR0
 216              		.cfi_endproc
 217              	.LFE133:
 219              		.section	.text.BNO055_Init,"ax",%progbits
 220              		.align	1
 221              		.global	BNO055_Init
 222              		.syntax unified
 223              		.thumb
 224              		.thumb_func
 226              	BNO055_Init:
 227              	.LFB134:
  65:Core/Src/BNO055.c **** 
  66:Core/Src/BNO055.c **** #ifdef BNO055_HARDWARE_RESET
  67:Core/Src/BNO055.c **** 
  68:Core/Src/BNO055.c **** void BNO055_HW_Reset_Mount(uint32_t GPIO_Port, uint16_t GPIO_Pin){
  69:Core/Src/BNO055.c **** 	Reset_Port = GPIO_Port;
  70:Core/Src/BNO055.c **** 	Reset_Pin = GPIO_Pin;
  71:Core/Src/BNO055.c **** }
  72:Core/Src/BNO055.c **** 
  73:Core/Src/BNO055.c **** #endif
  74:Core/Src/BNO055.c **** 
  75:Core/Src/BNO055.c **** BNO055_ERROR BNO055_Init(void){
 228              		.loc 1 75 31 is_stmt 1 view -0
 229              		.cfi_startproc
 230              		@ args = 0, pretend = 0, frame = 8
 231              		@ frame_needed = 0, uses_anonymous_args = 0
 232 0000 10B5     		push	{r4, lr}
 233              		.cfi_def_cfa_offset 8
 234              		.cfi_offset 4, -8
 235              		.cfi_offset 14, -4
 236 0002 82B0     		sub	sp, sp, #8
 237              		.cfi_def_cfa_offset 16
  76:Core/Src/BNO055.c **** 
  77:Core/Src/BNO055.c **** 	HAL_StatusTypeDef error;
 238              		.loc 1 77 2 view .LVU40
  78:Core/Src/BNO055.c **** 	uint8_t ID_Check = 0;
 239              		.loc 1 78 2 view .LVU41
 240              		.loc 1 78 10 is_stmt 0 view .LVU42
 241 0004 0024     		movs	r4, #0
 242 0006 8DF80740 		strb	r4, [sp, #7]
  79:Core/Src/BNO055.c **** 
  80:Core/Src/BNO055.c **** 	/* Software Reset Module */
  81:Core/Src/BNO055.c **** 	error = BNO055_Write(BNO055_SYS_TRIGGER, BNO055_SYS_RESET);
 243              		.loc 1 81 2 is_stmt 1 view .LVU43
 244              		.loc 1 81 10 is_stmt 0 view .LVU44
 245 000a 2021     		movs	r1, #32
 246 000c 3F20     		movs	r0, #63
 247 000e FFF7FEFF 		bl	BNO055_Write
 248              	.LVL17:
  82:Core/Src/BNO055.c **** 	BNO055_ERROR_HANDLE(error);
 249              		.loc 1 82 2 is_stmt 1 view .LVU45
 250 0012 FFF7FEFF 		bl	BNO055_ERROR_HANDLE
 251              	.LVL18:
  83:Core/Src/BNO055.c **** 	HAL_Delay(700);
ARM GAS  C:\Users\jacki\AppData\Local\Temp\cctmZXai.s 			page 7


 252              		.loc 1 83 2 view .LVU46
 253 0016 4FF42F70 		mov	r0, #700
 254 001a FFF7FEFF 		bl	HAL_Delay
 255              	.LVL19:
  84:Core/Src/BNO055.c **** 
  85:Core/Src/BNO055.c **** 	/* Hardware Reset Module */
  86:Core/Src/BNO055.c **** 	#ifdef BNO055_HARDWARE_RESET
  87:Core/Src/BNO055.c **** 		HAL_GPIO_WritePin(Reset_Port, Reset_Pin, GPIO_PIN_RESET);
  88:Core/Src/BNO055.c **** 		HAL_Delay(20);
  89:Core/Src/BNO055.c **** 		HAL_GPIO_WritePin(Reset_Port, Reset_Pin, GPIO_PIN_SET);
  90:Core/Src/BNO055.c **** 	#endif
  91:Core/Src/BNO055.c **** 
  92:Core/Src/BNO055.c **** 	/* Read Chip ID Register to see if BNO055 is detected*/
  93:Core/Src/BNO055.c **** 	error = BNO055_Read(BNO055_CHIP_ID, &ID_Check, 1);
 256              		.loc 1 93 2 view .LVU47
 257              		.loc 1 93 10 is_stmt 0 view .LVU48
 258 001e 0122     		movs	r2, #1
 259 0020 0DF10701 		add	r1, sp, #7
 260 0024 2046     		mov	r0, r4
 261 0026 FFF7FEFF 		bl	BNO055_Read
 262              	.LVL20:
  94:Core/Src/BNO055.c **** 	BNO055_ERROR_HANDLE(error);
 263              		.loc 1 94 2 is_stmt 1 view .LVU49
 264 002a FFF7FEFF 		bl	BNO055_ERROR_HANDLE
 265              	.LVL21:
  95:Core/Src/BNO055.c **** 	if(ID_Check != BNO055_EXPECTED_ID)
 266              		.loc 1 95 2 view .LVU50
 267              		.loc 1 95 14 is_stmt 0 view .LVU51
 268 002e 9DF80730 		ldrb	r3, [sp, #7]	@ zero_extendqisi2
 269              		.loc 1 95 4 view .LVU52
 270 0032 A02B     		cmp	r3, #160
 271 0034 02D0     		beq	.L25
  96:Core/Src/BNO055.c **** 		return BNO055_NOT_DETECTED;
 272              		.loc 1 96 10 view .LVU53
 273 0036 0120     		movs	r0, #1
 274              	.L22:
  97:Core/Src/BNO055.c **** 
  98:Core/Src/BNO055.c **** 	/* Set Register Page to 0 and Clear System Trigger*/
  99:Core/Src/BNO055.c **** 	error = BNO055_Write(BNO055_PAGE_ID, BNO055_PAGE_0);
 100:Core/Src/BNO055.c **** 	BNO055_ERROR_HANDLE(error);
 101:Core/Src/BNO055.c **** 	HAL_Delay(20);
 102:Core/Src/BNO055.c **** 
 103:Core/Src/BNO055.c **** 	/* Set BNO055 Operation Mode to CONFIG MODE*/
 104:Core/Src/BNO055.c **** 	error = BNO055_Write(BNO055_OPR_MODE, OPR_MODE_CONFIG);
 105:Core/Src/BNO055.c **** 	BNO055_ERROR_HANDLE(error);
 106:Core/Src/BNO055.c **** 
 107:Core/Src/BNO055.c **** 	/* Necessary Delay to Set Operation Mode */
 108:Core/Src/BNO055.c **** 	HAL_Delay(10);
 109:Core/Src/BNO055.c **** 
 110:Core/Src/BNO055.c **** 	return BNO055_SUCCESS;
 111:Core/Src/BNO055.c **** 
 112:Core/Src/BNO055.c **** }
 275              		.loc 1 112 1 view .LVU54
 276 0038 02B0     		add	sp, sp, #8
 277              		.cfi_remember_state
 278              		.cfi_def_cfa_offset 8
 279              		@ sp needed
ARM GAS  C:\Users\jacki\AppData\Local\Temp\cctmZXai.s 			page 8


 280 003a 10BD     		pop	{r4, pc}
 281              	.L25:
 282              		.cfi_restore_state
  99:Core/Src/BNO055.c **** 	BNO055_ERROR_HANDLE(error);
 283              		.loc 1 99 2 is_stmt 1 view .LVU55
  99:Core/Src/BNO055.c **** 	BNO055_ERROR_HANDLE(error);
 284              		.loc 1 99 10 is_stmt 0 view .LVU56
 285 003c 2146     		mov	r1, r4
 286 003e 0720     		movs	r0, #7
 287 0040 FFF7FEFF 		bl	BNO055_Write
 288              	.LVL22:
 100:Core/Src/BNO055.c **** 	HAL_Delay(20);
 289              		.loc 1 100 2 is_stmt 1 view .LVU57
 290 0044 FFF7FEFF 		bl	BNO055_ERROR_HANDLE
 291              	.LVL23:
 101:Core/Src/BNO055.c **** 
 292              		.loc 1 101 2 view .LVU58
 293 0048 1420     		movs	r0, #20
 294 004a FFF7FEFF 		bl	HAL_Delay
 295              	.LVL24:
 104:Core/Src/BNO055.c **** 	BNO055_ERROR_HANDLE(error);
 296              		.loc 1 104 2 view .LVU59
 104:Core/Src/BNO055.c **** 	BNO055_ERROR_HANDLE(error);
 297              		.loc 1 104 10 is_stmt 0 view .LVU60
 298 004e 2146     		mov	r1, r4
 299 0050 3D20     		movs	r0, #61
 300 0052 FFF7FEFF 		bl	BNO055_Write
 301              	.LVL25:
 105:Core/Src/BNO055.c **** 
 302              		.loc 1 105 2 is_stmt 1 view .LVU61
 303 0056 FFF7FEFF 		bl	BNO055_ERROR_HANDLE
 304              	.LVL26:
 108:Core/Src/BNO055.c **** 
 305              		.loc 1 108 2 view .LVU62
 306 005a 0A20     		movs	r0, #10
 307 005c FFF7FEFF 		bl	HAL_Delay
 308              	.LVL27:
 110:Core/Src/BNO055.c **** 
 309              		.loc 1 110 2 view .LVU63
 110:Core/Src/BNO055.c **** 
 310              		.loc 1 110 9 is_stmt 0 view .LVU64
 311 0060 2046     		mov	r0, r4
 312 0062 E9E7     		b	.L22
 313              		.cfi_endproc
 314              	.LFE134:
 316              		.section	.text.BNO055_Set_Unit,"ax",%progbits
 317              		.align	1
 318              		.global	BNO055_Set_Unit
 319              		.syntax unified
 320              		.thumb
 321              		.thumb_func
 323              	BNO055_Set_Unit:
 324              	.LVL28:
 325              	.LFB135:
 113:Core/Src/BNO055.c **** 
 114:Core/Src/BNO055.c **** BNO055_ERROR BNO055_Set_Unit(BNO055_ACCEL_GRAV_UNIT accUnit, BNO055_ANGULAR_RATE_UNIT angRateUnit, 
 326              		.loc 1 114 155 is_stmt 1 view -0
ARM GAS  C:\Users\jacki\AppData\Local\Temp\cctmZXai.s 			page 9


 327              		.cfi_startproc
 328              		@ args = 0, pretend = 0, frame = 0
 329              		@ frame_needed = 0, uses_anonymous_args = 0
 330              		@ link register save eliminated.
 115:Core/Src/BNO055.c **** 
 116:Core/Src/BNO055.c **** 	return BNO055_SUCCESS;
 331              		.loc 1 116 2 view .LVU66
 117:Core/Src/BNO055.c **** 
 118:Core/Src/BNO055.c **** }
 332              		.loc 1 118 1 is_stmt 0 view .LVU67
 333 0000 0020     		movs	r0, #0
 334              	.LVL29:
 335              		.loc 1 118 1 view .LVU68
 336 0002 7047     		bx	lr
 337              		.cfi_endproc
 338              	.LFE135:
 340              		.section	.text.BNO055_Set_OP_Mode,"ax",%progbits
 341              		.align	1
 342              		.global	BNO055_Set_OP_Mode
 343              		.syntax unified
 344              		.thumb
 345              		.thumb_func
 347              	BNO055_Set_OP_Mode:
 348              	.LVL30:
 349              	.LFB136:
 119:Core/Src/BNO055.c **** 
 120:Core/Src/BNO055.c **** BNO055_ERROR BNO055_Set_OP_Mode(BNO055_OPERATION_MODE op){
 350              		.loc 1 120 58 is_stmt 1 view -0
 351              		.cfi_startproc
 352              		@ args = 0, pretend = 0, frame = 0
 353              		@ frame_needed = 0, uses_anonymous_args = 0
 354              		.loc 1 120 58 is_stmt 0 view .LVU70
 355 0000 08B5     		push	{r3, lr}
 356              		.cfi_def_cfa_offset 8
 357              		.cfi_offset 3, -8
 358              		.cfi_offset 14, -4
 121:Core/Src/BNO055.c **** 
 122:Core/Src/BNO055.c **** 	HAL_StatusTypeDef error;
 359              		.loc 1 122 2 is_stmt 1 view .LVU71
 123:Core/Src/BNO055.c **** 
 124:Core/Src/BNO055.c **** 	switch(op){
 360              		.loc 1 124 2 view .LVU72
 361 0002 0138     		subs	r0, r0, #1
 362              	.LVL31:
 363              		.loc 1 124 2 is_stmt 0 view .LVU73
 364 0004 0B28     		cmp	r0, #11
 365 0006 44D8     		bhi	.L28
 366 0008 DFE800F0 		tbb	[pc, r0]
 367              	.L30:
 368 000c 06       		.byte	(.L40-.L30)/2
 369 000d 11       		.byte	(.L39-.L30)/2
 370 000e 16       		.byte	(.L38-.L30)/2
 371 000f 1B       		.byte	(.L37-.L30)/2
 372 0010 20       		.byte	(.L36-.L30)/2
 373 0011 25       		.byte	(.L35-.L30)/2
 374 0012 43       		.byte	(.L28-.L30)/2
 375 0013 2A       		.byte	(.L34-.L30)/2
ARM GAS  C:\Users\jacki\AppData\Local\Temp\cctmZXai.s 			page 10


 376 0014 2F       		.byte	(.L33-.L30)/2
 377 0015 34       		.byte	(.L32-.L30)/2
 378 0016 39       		.byte	(.L31-.L30)/2
 379 0017 3E       		.byte	(.L29-.L30)/2
 380              		.p2align 1
 381              	.L40:
 125:Core/Src/BNO055.c **** 		case ACC_ONLY:
 126:Core/Src/BNO055.c **** 			error = BNO055_Write(BNO055_OPR_MODE, OPR_MODE_ACCONLY);
 382              		.loc 1 126 4 is_stmt 1 view .LVU74
 383              		.loc 1 126 12 is_stmt 0 view .LVU75
 384 0018 0121     		movs	r1, #1
 385 001a 3D20     		movs	r0, #61
 386 001c FFF7FEFF 		bl	BNO055_Write
 387              	.LVL32:
 127:Core/Src/BNO055.c **** 			break;
 388              		.loc 1 127 4 is_stmt 1 view .LVU76
 389              	.L41:
 128:Core/Src/BNO055.c **** 
 129:Core/Src/BNO055.c **** 		case MAG_ONLY:
 130:Core/Src/BNO055.c **** 			error = BNO055_Write(BNO055_OPR_MODE, OPR_MODE_MAGONLY);
 131:Core/Src/BNO055.c **** 			break;
 132:Core/Src/BNO055.c **** 
 133:Core/Src/BNO055.c **** 		case GYRO_ONLY:
 134:Core/Src/BNO055.c **** 			error = BNO055_Write(BNO055_OPR_MODE, OPR_MODE_GRYOONLY);
 135:Core/Src/BNO055.c **** 			break;
 136:Core/Src/BNO055.c **** 
 137:Core/Src/BNO055.c **** 		case ACC_MAG:
 138:Core/Src/BNO055.c **** 			error = BNO055_Write(BNO055_OPR_MODE, OPR_MODE_ACCMAG);
 139:Core/Src/BNO055.c **** 			break;
 140:Core/Src/BNO055.c **** 
 141:Core/Src/BNO055.c **** 		case ACC_GYRO:
 142:Core/Src/BNO055.c **** 			error = BNO055_Write(BNO055_OPR_MODE, OPR_MODE_ACCGYRO);
 143:Core/Src/BNO055.c **** 			break;
 144:Core/Src/BNO055.c **** 
 145:Core/Src/BNO055.c **** 		case MAG_GYRO:
 146:Core/Src/BNO055.c **** 			error = BNO055_Write(BNO055_OPR_MODE, OPR_MODE_MAGGRYO);
 147:Core/Src/BNO055.c **** 			break;
 148:Core/Src/BNO055.c **** 
 149:Core/Src/BNO055.c **** 		case IMU:
 150:Core/Src/BNO055.c **** 			error = BNO055_Write(BNO055_OPR_MODE, OPR_MODE_IMU);
 151:Core/Src/BNO055.c **** 			break;
 152:Core/Src/BNO055.c **** 
 153:Core/Src/BNO055.c **** 		case COMPASS:
 154:Core/Src/BNO055.c **** 			error = BNO055_Write(BNO055_OPR_MODE, OPR_MODE_COMPASS);
 155:Core/Src/BNO055.c **** 			break;
 156:Core/Src/BNO055.c **** 
 157:Core/Src/BNO055.c **** 		case M4G:
 158:Core/Src/BNO055.c **** 			error = BNO055_Write(BNO055_OPR_MODE, OPR_MODE_M4G);
 159:Core/Src/BNO055.c **** 			break;
 160:Core/Src/BNO055.c **** 
 161:Core/Src/BNO055.c **** 		case NDOF_FMC_OFF:
 162:Core/Src/BNO055.c **** 			error = BNO055_Write(BNO055_OPR_MODE, OPR_MODE_NDOF_FMC);
 163:Core/Src/BNO055.c **** 			break;
 164:Core/Src/BNO055.c **** 
 165:Core/Src/BNO055.c **** 		case NDOF:
 166:Core/Src/BNO055.c **** 			error = BNO055_Write(BNO055_OPR_MODE, OPR_MODE_NDOF);
 167:Core/Src/BNO055.c **** 			break;
ARM GAS  C:\Users\jacki\AppData\Local\Temp\cctmZXai.s 			page 11


 168:Core/Src/BNO055.c **** 
 169:Core/Src/BNO055.c **** 		default:
 170:Core/Src/BNO055.c **** 			error = BNO055_Write(BNO055_OPR_MODE, OPR_MODE_CONFIG);
 171:Core/Src/BNO055.c **** 			break;
 172:Core/Src/BNO055.c **** 	}
 173:Core/Src/BNO055.c **** 
 174:Core/Src/BNO055.c **** 	BNO055_ERROR_HANDLE(error);
 390              		.loc 1 174 2 view .LVU77
 391 0020 FFF7FEFF 		bl	BNO055_ERROR_HANDLE
 392              	.LVL33:
 175:Core/Src/BNO055.c **** 	HAL_Delay(10);
 393              		.loc 1 175 2 view .LVU78
 394 0024 0A20     		movs	r0, #10
 395 0026 FFF7FEFF 		bl	HAL_Delay
 396              	.LVL34:
 176:Core/Src/BNO055.c **** 	return BNO055_SUCCESS;
 397              		.loc 1 176 2 view .LVU79
 177:Core/Src/BNO055.c **** }
 398              		.loc 1 177 1 is_stmt 0 view .LVU80
 399 002a 0020     		movs	r0, #0
 400 002c 08BD     		pop	{r3, pc}
 401              	.L39:
 130:Core/Src/BNO055.c **** 			break;
 402              		.loc 1 130 4 is_stmt 1 view .LVU81
 130:Core/Src/BNO055.c **** 			break;
 403              		.loc 1 130 12 is_stmt 0 view .LVU82
 404 002e 0221     		movs	r1, #2
 405 0030 3D20     		movs	r0, #61
 406 0032 FFF7FEFF 		bl	BNO055_Write
 407              	.LVL35:
 131:Core/Src/BNO055.c **** 
 408              		.loc 1 131 4 is_stmt 1 view .LVU83
 409 0036 F3E7     		b	.L41
 410              	.LVL36:
 411              	.L38:
 134:Core/Src/BNO055.c **** 			break;
 412              		.loc 1 134 4 view .LVU84
 134:Core/Src/BNO055.c **** 			break;
 413              		.loc 1 134 12 is_stmt 0 view .LVU85
 414 0038 0321     		movs	r1, #3
 415 003a 3D20     		movs	r0, #61
 416 003c FFF7FEFF 		bl	BNO055_Write
 417              	.LVL37:
 135:Core/Src/BNO055.c **** 
 418              		.loc 1 135 4 is_stmt 1 view .LVU86
 419 0040 EEE7     		b	.L41
 420              	.LVL38:
 421              	.L37:
 138:Core/Src/BNO055.c **** 			break;
 422              		.loc 1 138 4 view .LVU87
 138:Core/Src/BNO055.c **** 			break;
 423              		.loc 1 138 12 is_stmt 0 view .LVU88
 424 0042 0421     		movs	r1, #4
 425 0044 3D20     		movs	r0, #61
 426 0046 FFF7FEFF 		bl	BNO055_Write
 427              	.LVL39:
 139:Core/Src/BNO055.c **** 
ARM GAS  C:\Users\jacki\AppData\Local\Temp\cctmZXai.s 			page 12


 428              		.loc 1 139 4 is_stmt 1 view .LVU89
 429 004a E9E7     		b	.L41
 430              	.LVL40:
 431              	.L36:
 142:Core/Src/BNO055.c **** 			break;
 432              		.loc 1 142 4 view .LVU90
 142:Core/Src/BNO055.c **** 			break;
 433              		.loc 1 142 12 is_stmt 0 view .LVU91
 434 004c 0521     		movs	r1, #5
 435 004e 3D20     		movs	r0, #61
 436 0050 FFF7FEFF 		bl	BNO055_Write
 437              	.LVL41:
 143:Core/Src/BNO055.c **** 
 438              		.loc 1 143 4 is_stmt 1 view .LVU92
 439 0054 E4E7     		b	.L41
 440              	.LVL42:
 441              	.L35:
 146:Core/Src/BNO055.c **** 			break;
 442              		.loc 1 146 4 view .LVU93
 146:Core/Src/BNO055.c **** 			break;
 443              		.loc 1 146 12 is_stmt 0 view .LVU94
 444 0056 0621     		movs	r1, #6
 445 0058 3D20     		movs	r0, #61
 446 005a FFF7FEFF 		bl	BNO055_Write
 447              	.LVL43:
 147:Core/Src/BNO055.c **** 
 448              		.loc 1 147 4 is_stmt 1 view .LVU95
 449 005e DFE7     		b	.L41
 450              	.LVL44:
 451              	.L34:
 150:Core/Src/BNO055.c **** 			break;
 452              		.loc 1 150 4 view .LVU96
 150:Core/Src/BNO055.c **** 			break;
 453              		.loc 1 150 12 is_stmt 0 view .LVU97
 454 0060 0821     		movs	r1, #8
 455 0062 3D20     		movs	r0, #61
 456 0064 FFF7FEFF 		bl	BNO055_Write
 457              	.LVL45:
 151:Core/Src/BNO055.c **** 
 458              		.loc 1 151 4 is_stmt 1 view .LVU98
 459 0068 DAE7     		b	.L41
 460              	.LVL46:
 461              	.L33:
 154:Core/Src/BNO055.c **** 			break;
 462              		.loc 1 154 4 view .LVU99
 154:Core/Src/BNO055.c **** 			break;
 463              		.loc 1 154 12 is_stmt 0 view .LVU100
 464 006a 0921     		movs	r1, #9
 465 006c 3D20     		movs	r0, #61
 466 006e FFF7FEFF 		bl	BNO055_Write
 467              	.LVL47:
 155:Core/Src/BNO055.c **** 
 468              		.loc 1 155 4 is_stmt 1 view .LVU101
 469 0072 D5E7     		b	.L41
 470              	.LVL48:
 471              	.L32:
 158:Core/Src/BNO055.c **** 			break;
ARM GAS  C:\Users\jacki\AppData\Local\Temp\cctmZXai.s 			page 13


 472              		.loc 1 158 4 view .LVU102
 158:Core/Src/BNO055.c **** 			break;
 473              		.loc 1 158 12 is_stmt 0 view .LVU103
 474 0074 0A21     		movs	r1, #10
 475 0076 3D20     		movs	r0, #61
 476 0078 FFF7FEFF 		bl	BNO055_Write
 477              	.LVL49:
 159:Core/Src/BNO055.c **** 
 478              		.loc 1 159 4 is_stmt 1 view .LVU104
 479 007c D0E7     		b	.L41
 480              	.LVL50:
 481              	.L31:
 162:Core/Src/BNO055.c **** 			break;
 482              		.loc 1 162 4 view .LVU105
 162:Core/Src/BNO055.c **** 			break;
 483              		.loc 1 162 12 is_stmt 0 view .LVU106
 484 007e 0B21     		movs	r1, #11
 485 0080 3D20     		movs	r0, #61
 486 0082 FFF7FEFF 		bl	BNO055_Write
 487              	.LVL51:
 163:Core/Src/BNO055.c **** 
 488              		.loc 1 163 4 is_stmt 1 view .LVU107
 489 0086 CBE7     		b	.L41
 490              	.LVL52:
 491              	.L29:
 166:Core/Src/BNO055.c **** 			break;
 492              		.loc 1 166 4 view .LVU108
 166:Core/Src/BNO055.c **** 			break;
 493              		.loc 1 166 12 is_stmt 0 view .LVU109
 494 0088 0C21     		movs	r1, #12
 495 008a 3D20     		movs	r0, #61
 496 008c FFF7FEFF 		bl	BNO055_Write
 497              	.LVL53:
 167:Core/Src/BNO055.c **** 
 498              		.loc 1 167 4 is_stmt 1 view .LVU110
 499 0090 C6E7     		b	.L41
 500              	.LVL54:
 501              	.L28:
 170:Core/Src/BNO055.c **** 			break;
 502              		.loc 1 170 4 view .LVU111
 170:Core/Src/BNO055.c **** 			break;
 503              		.loc 1 170 12 is_stmt 0 view .LVU112
 504 0092 0021     		movs	r1, #0
 505 0094 3D20     		movs	r0, #61
 506 0096 FFF7FEFF 		bl	BNO055_Write
 507              	.LVL55:
 171:Core/Src/BNO055.c **** 	}
 508              		.loc 1 171 4 is_stmt 1 view .LVU113
 509 009a C1E7     		b	.L41
 510              		.cfi_endproc
 511              	.LFE136:
 513              		.section	.text.BNO055_Get_Euler_Vec,"ax",%progbits
 514              		.align	1
 515              		.global	BNO055_Get_Euler_Vec
 516              		.syntax unified
 517              		.thumb
 518              		.thumb_func
ARM GAS  C:\Users\jacki\AppData\Local\Temp\cctmZXai.s 			page 14


 520              	BNO055_Get_Euler_Vec:
 521              	.LVL56:
 522              	.LFB137:
 178:Core/Src/BNO055.c **** 
 179:Core/Src/BNO055.c **** BNO055_ERROR BNO055_Get_Euler_Vec(BNO055_Euler_Vec_t* vec){
 523              		.loc 1 179 59 view -0
 524              		.cfi_startproc
 525              		@ args = 0, pretend = 0, frame = 8
 526              		@ frame_needed = 0, uses_anonymous_args = 0
 527              		.loc 1 179 59 is_stmt 0 view .LVU115
 528 0000 10B5     		push	{r4, lr}
 529              		.cfi_def_cfa_offset 8
 530              		.cfi_offset 4, -8
 531              		.cfi_offset 14, -4
 532 0002 82B0     		sub	sp, sp, #8
 533              		.cfi_def_cfa_offset 16
 534 0004 0446     		mov	r4, r0
 180:Core/Src/BNO055.c **** 
 181:Core/Src/BNO055.c **** 	HAL_StatusTypeDef error;
 535              		.loc 1 181 2 is_stmt 1 view .LVU116
 182:Core/Src/BNO055.c **** 	uint8_t tempBuf[6];
 536              		.loc 1 182 2 view .LVU117
 183:Core/Src/BNO055.c **** 
 184:Core/Src/BNO055.c **** 	/* Make sure page is set to 0 */
 185:Core/Src/BNO055.c **** 	error = BNO055_Write(BNO055_PAGE_ID, BNO055_PAGE_0);
 537              		.loc 1 185 2 view .LVU118
 538              		.loc 1 185 10 is_stmt 0 view .LVU119
 539 0006 0021     		movs	r1, #0
 540 0008 0720     		movs	r0, #7
 541              	.LVL57:
 542              		.loc 1 185 10 view .LVU120
 543 000a FFF7FEFF 		bl	BNO055_Write
 544              	.LVL58:
 186:Core/Src/BNO055.c **** 	BNO055_ERROR_HANDLE(error);
 545              		.loc 1 186 2 is_stmt 1 view .LVU121
 546 000e FFF7FEFF 		bl	BNO055_ERROR_HANDLE
 547              	.LVL59:
 187:Core/Src/BNO055.c **** 
 188:Core/Src/BNO055.c **** 	/* Grab Euler Vector Data */
 189:Core/Src/BNO055.c **** 	error = BNO055_Read(BNO055_EUL_HEADING_LSB, tempBuf, sizeof(tempBuf));
 548              		.loc 1 189 2 view .LVU122
 549              		.loc 1 189 10 is_stmt 0 view .LVU123
 550 0012 0622     		movs	r2, #6
 551 0014 6946     		mov	r1, sp
 552 0016 1A20     		movs	r0, #26
 553 0018 FFF7FEFF 		bl	BNO055_Read
 554              	.LVL60:
 190:Core/Src/BNO055.c **** 	BNO055_ERROR_HANDLE(error);
 555              		.loc 1 190 2 is_stmt 1 view .LVU124
 556 001c FFF7FEFF 		bl	BNO055_ERROR_HANDLE
 557              	.LVL61:
 191:Core/Src/BNO055.c **** 
 192:Core/Src/BNO055.c **** 	/* Parse Data Into Struct */
 193:Core/Src/BNO055.c **** 	vec->x = (int16_t)((tempBuf[1]<<8) | tempBuf[0]) / BNO055_EULER_DEGREE_SCALE;
 558              		.loc 1 193 2 view .LVU125
 559              		.loc 1 193 29 is_stmt 0 view .LVU126
 560 0020 9DF80120 		ldrb	r2, [sp, #1]	@ zero_extendqisi2
ARM GAS  C:\Users\jacki\AppData\Local\Temp\cctmZXai.s 			page 15


 561              		.loc 1 193 46 view .LVU127
 562 0024 9DF80030 		ldrb	r3, [sp]	@ zero_extendqisi2
 563              		.loc 1 193 11 view .LVU128
 564 0028 43EA0223 		orr	r3, r3, r2, lsl #8
 565 002c 1BB2     		sxth	r3, r3
 566 002e 07EE903A 		vmov	s15, r3	@ int
 567              		.loc 1 193 51 view .LVU129
 568 0032 F8EEE77A 		vcvt.f32.s32	s15, s15
 569 0036 9FED137A 		vldr.32	s14, .L45
 570 003a 67EE877A 		vmul.f32	s15, s15, s14
 571              		.loc 1 193 9 view .LVU130
 572 003e C4ED007A 		vstr.32	s15, [r4]
 194:Core/Src/BNO055.c **** 	vec->y = (int16_t)((tempBuf[3]<<8) | tempBuf[2]) / BNO055_EULER_DEGREE_SCALE;
 573              		.loc 1 194 2 is_stmt 1 view .LVU131
 574              		.loc 1 194 29 is_stmt 0 view .LVU132
 575 0042 9DF80320 		ldrb	r2, [sp, #3]	@ zero_extendqisi2
 576              		.loc 1 194 46 view .LVU133
 577 0046 9DF80230 		ldrb	r3, [sp, #2]	@ zero_extendqisi2
 578              		.loc 1 194 11 view .LVU134
 579 004a 43EA0223 		orr	r3, r3, r2, lsl #8
 580 004e 1BB2     		sxth	r3, r3
 581 0050 07EE903A 		vmov	s15, r3	@ int
 582              		.loc 1 194 51 view .LVU135
 583 0054 F8EEE77A 		vcvt.f32.s32	s15, s15
 584 0058 67EE877A 		vmul.f32	s15, s15, s14
 585              		.loc 1 194 9 view .LVU136
 586 005c C4ED017A 		vstr.32	s15, [r4, #4]
 195:Core/Src/BNO055.c **** 	vec->z = (int16_t)((tempBuf[5]<<8) | tempBuf[4]) / BNO055_EULER_DEGREE_SCALE;
 587              		.loc 1 195 2 is_stmt 1 view .LVU137
 588              		.loc 1 195 29 is_stmt 0 view .LVU138
 589 0060 9DF80520 		ldrb	r2, [sp, #5]	@ zero_extendqisi2
 590              		.loc 1 195 46 view .LVU139
 591 0064 9DF80430 		ldrb	r3, [sp, #4]	@ zero_extendqisi2
 592              		.loc 1 195 11 view .LVU140
 593 0068 43EA0223 		orr	r3, r3, r2, lsl #8
 594 006c 1BB2     		sxth	r3, r3
 595 006e 07EE903A 		vmov	s15, r3	@ int
 596              		.loc 1 195 51 view .LVU141
 597 0072 F8EEE77A 		vcvt.f32.s32	s15, s15
 598 0076 67EE877A 		vmul.f32	s15, s15, s14
 599              		.loc 1 195 9 view .LVU142
 600 007a C4ED027A 		vstr.32	s15, [r4, #8]
 196:Core/Src/BNO055.c **** 
 197:Core/Src/BNO055.c **** 	return BNO055_SUCCESS;
 601              		.loc 1 197 2 is_stmt 1 view .LVU143
 198:Core/Src/BNO055.c **** }
 602              		.loc 1 198 1 is_stmt 0 view .LVU144
 603 007e 0020     		movs	r0, #0
 604 0080 02B0     		add	sp, sp, #8
 605              		.cfi_def_cfa_offset 8
 606              		@ sp needed
 607 0082 10BD     		pop	{r4, pc}
 608              	.LVL62:
 609              	.L46:
 610              		.loc 1 198 1 view .LVU145
 611              		.align	2
 612              	.L45:
ARM GAS  C:\Users\jacki\AppData\Local\Temp\cctmZXai.s 			page 16


 613 0084 0000803D 		.word	1031798784
 614              		.cfi_endproc
 615              	.LFE137:
 617              		.global	BNO055_I2C
 618              		.section	.bss.BNO055_I2C,"aw",%nobits
 619              		.align	2
 620              		.set	.LANCHOR0,. + 0
 623              	BNO055_I2C:
 624 0000 00000000 		.space	4
 625              		.text
 626              	.Letext0:
 627              		.file 2 "c:\\users\\jacki\\appdata\\roaming\\code\\user\\globalstorage\\bmd.stm32-for-vscode\\@xpa
 628              		.file 3 "c:\\users\\jacki\\appdata\\roaming\\code\\user\\globalstorage\\bmd.stm32-for-vscode\\@xpa
 629              		.file 4 "Drivers/CMSIS/Device/ST/STM32F4xx/Include/stm32f446xx.h"
 630              		.file 5 "Drivers/STM32F4xx_HAL_Driver/Inc/stm32f4xx_hal_def.h"
 631              		.file 6 "Drivers/STM32F4xx_HAL_Driver/Inc/stm32f4xx_hal_gpio.h"
 632              		.file 7 "Drivers/STM32F4xx_HAL_Driver/Inc/stm32f4xx_hal_dma.h"
 633              		.file 8 "Drivers/STM32F4xx_HAL_Driver/Inc/stm32f4xx_hal_i2c.h"
 634              		.file 9 "Core/Inc/BNO055.h"
 635              		.file 10 "Drivers/STM32F4xx_HAL_Driver/Inc/stm32f4xx_hal.h"
ARM GAS  C:\Users\jacki\AppData\Local\Temp\cctmZXai.s 			page 17

