ARM GAS  C:\Users\baske\AppData\Local\Temp\ccVCqxIy.s 			page 1


   1              		.cpu cortex-m4
   2              		.arch armv7e-m
   3              		.fpu fpv4-sp-d16
   4              		.eabi_attribute 27, 1
   5              		.eabi_attribute 28, 1
   6              		.eabi_attribute 20, 1
   7              		.eabi_attribute 21, 1
   8              		.eabi_attribute 23, 3
   9              		.eabi_attribute 24, 1
  10              		.eabi_attribute 25, 1
  11              		.eabi_attribute 26, 1
  12              		.eabi_attribute 30, 1
  13              		.eabi_attribute 34, 1
  14              		.eabi_attribute 18, 4
  15              		.file	"BNO055.c"
  16              		.text
  17              	.Ltext0:
  18              		.cfi_sections	.debug_frame
  19              		.section	.text.BNO055_I2C_Mount,"ax",%progbits
  20              		.align	1
  21              		.global	BNO055_I2C_Mount
  22              		.syntax unified
  23              		.thumb
  24              		.thumb_func
  26              	BNO055_I2C_Mount:
  27              	.LVL0:
  28              	.LFB134:
  29              		.file 1 "Core/Src/BNO055.c"
   1:Core/Src/BNO055.c **** /*
   2:Core/Src/BNO055.c ****  * BNO055.c
   3:Core/Src/BNO055.c ****  *
   4:Core/Src/BNO055.c ****  *  Created on: Sep 4, 2023
   5:Core/Src/BNO055.c ****  *      Author: baske
   6:Core/Src/BNO055.c ****  */
   7:Core/Src/BNO055.c **** 
   8:Core/Src/BNO055.c **** 
   9:Core/Src/BNO055.c **** #include "BNO055.h"
  10:Core/Src/BNO055.c **** #include "BNO055_Regs.h"
  11:Core/Src/BNO055.c **** 
  12:Core/Src/BNO055.c **** I2C_HandleTypeDef* BNO055_I2C;
  13:Core/Src/BNO055.c **** 
  14:Core/Src/BNO055.c **** typedef struct{
  15:Core/Src/BNO055.c **** 
  16:Core/Src/BNO055.c **** 	BNO055_OPERATION_MODE currentMode;
  17:Core/Src/BNO055.c **** 	uint8_t currentPage;
  18:Core/Src/BNO055.c **** 
  19:Core/Src/BNO055.c **** } BNO055_STATE;
  20:Core/Src/BNO055.c **** 
  21:Core/Src/BNO055.c **** BNO055_STATE state;
  22:Core/Src/BNO055.c **** 
  23:Core/Src/BNO055.c **** #ifdef BNO055_HARDWARE_RESET
  24:Core/Src/BNO055.c **** 
  25:Core/Src/BNO055.c **** uint32_t Reset_Port = 0;
  26:Core/Src/BNO055.c **** uint16_t Reset_Pin = 0;
  27:Core/Src/BNO055.c **** 
  28:Core/Src/BNO055.c **** #endif
  29:Core/Src/BNO055.c **** 
ARM GAS  C:\Users\baske\AppData\Local\Temp\ccVCqxIy.s 			page 2


  30:Core/Src/BNO055.c **** /*
  31:Core/Src/BNO055.c ****  * Local Read Function to BNO055
  32:Core/Src/BNO055.c ****  */
  33:Core/Src/BNO055.c **** static inline HAL_StatusTypeDef BNO055_Read(uint8_t reg, uint8_t* buf, uint8_t len){
  34:Core/Src/BNO055.c **** 
  35:Core/Src/BNO055.c **** 	HAL_StatusTypeDef error;
  36:Core/Src/BNO055.c **** 
  37:Core/Src/BNO055.c **** 	error = HAL_I2C_Master_Transmit(BNO055_I2C, BNO055_I2C_ADDR<<1, &reg, 1, BNO055_WRITE_TIMEOUT);
  38:Core/Src/BNO055.c **** 	error |= HAL_I2C_Master_Receive(BNO055_I2C, BNO055_I2C_ADDR<<1, buf, len, BNO055_READ_TIMEOUT);
  39:Core/Src/BNO055.c **** 
  40:Core/Src/BNO055.c **** 	return error;
  41:Core/Src/BNO055.c **** 
  42:Core/Src/BNO055.c **** }
  43:Core/Src/BNO055.c **** 
  44:Core/Src/BNO055.c **** /*
  45:Core/Src/BNO055.c ****  * Local Write Function to BNO055
  46:Core/Src/BNO055.c ****  */
  47:Core/Src/BNO055.c **** static inline HAL_StatusTypeDef BNO055_Write(uint8_t reg, uint8_t data){
  48:Core/Src/BNO055.c **** 
  49:Core/Src/BNO055.c **** 	HAL_StatusTypeDef error;
  50:Core/Src/BNO055.c **** 	uint8_t transmitBuf[2] = {reg, data};
  51:Core/Src/BNO055.c **** 
  52:Core/Src/BNO055.c **** 	error = HAL_I2C_Master_Transmit(BNO055_I2C, BNO055_I2C_ADDR<<1, transmitBuf, sizeof(transmitBuf), 
  53:Core/Src/BNO055.c **** 
  54:Core/Src/BNO055.c **** 	return error;
  55:Core/Src/BNO055.c **** 
  56:Core/Src/BNO055.c **** }
  57:Core/Src/BNO055.c **** 
  58:Core/Src/BNO055.c **** /*
  59:Core/Src/BNO055.c ****  * Simple Error Check Function
  60:Core/Src/BNO055.c ****  */
  61:Core/Src/BNO055.c **** static inline void BNO055_ERROR_HANDLE(HAL_StatusTypeDef error){
  62:Core/Src/BNO055.c **** 	if(error != HAL_OK){
  63:Core/Src/BNO055.c **** 		HAL_GPIO_WritePin(LD2_GPIO_Port, LD2_Pin, GPIO_PIN_SET);
  64:Core/Src/BNO055.c **** 		while(1);
  65:Core/Src/BNO055.c **** 	}
  66:Core/Src/BNO055.c **** }
  67:Core/Src/BNO055.c **** 
  68:Core/Src/BNO055.c **** /**
  69:Core/Src/BNO055.c ****  * Check Current Mode and Page 
  70:Core/Src/BNO055.c ****  * Set Current Mode and Page to new mode and poge
  71:Core/Src/BNO055.c ****  * Updates state struct instance
  72:Core/Src/BNO055.c ****  */
  73:Core/Src/BNO055.c **** static inline void BNO055_STATUS_CHECK_AND_SET(BNO055_STATE* currState, BNO055_OPERATION_MODE newMo
  74:Core/Src/BNO055.c **** 
  75:Core/Src/BNO055.c **** 	HAL_StatusTypeDef error;
  76:Core/Src/BNO055.c **** 
  77:Core/Src/BNO055.c **** 	/* Check and Set Current Mode to new Mode */
  78:Core/Src/BNO055.c **** 	if(currState->currentMode != newMode){
  79:Core/Src/BNO055.c **** 		error = BNO055_Write(BNO055_OPR_MODE, newMode);
  80:Core/Src/BNO055.c **** 		BNO055_ERROR_HANDLE(error);
  81:Core/Src/BNO055.c **** 		currState->currentMode = newMode;
  82:Core/Src/BNO055.c **** 		HAL_Delay(20);
  83:Core/Src/BNO055.c **** 	}
  84:Core/Src/BNO055.c **** 
  85:Core/Src/BNO055.c **** 	/* Check and Set current page to new page */
  86:Core/Src/BNO055.c **** 	if(currState->currentPage != newPage){
ARM GAS  C:\Users\baske\AppData\Local\Temp\ccVCqxIy.s 			page 3


  87:Core/Src/BNO055.c **** 		error = BNO055_Write(BNO055_PAGE_ID, newPage);
  88:Core/Src/BNO055.c **** 		BNO055_ERROR_HANDLE(error);
  89:Core/Src/BNO055.c **** 		currState->currentPage = newPage;
  90:Core/Src/BNO055.c **** 		HAL_Delay(20);
  91:Core/Src/BNO055.c **** 	}
  92:Core/Src/BNO055.c **** }
  93:Core/Src/BNO055.c **** 
  94:Core/Src/BNO055.c **** /*
  95:Core/Src/BNO055.c ****  * Allow User to Mount I2C Handle
  96:Core/Src/BNO055.c ****  */
  97:Core/Src/BNO055.c **** void BNO055_I2C_Mount(I2C_HandleTypeDef* i2c){
  30              		.loc 1 97 46 view -0
  31              		.cfi_startproc
  32              		@ args = 0, pretend = 0, frame = 0
  33              		@ frame_needed = 0, uses_anonymous_args = 0
  34              		@ link register save eliminated.
  98:Core/Src/BNO055.c **** 	BNO055_I2C = i2c;
  35              		.loc 1 98 2 view .LVU1
  36              		.loc 1 98 13 is_stmt 0 view .LVU2
  37 0000 014B     		ldr	r3, .L2
  38 0002 1860     		str	r0, [r3]
  99:Core/Src/BNO055.c **** }
  39              		.loc 1 99 1 view .LVU3
  40 0004 7047     		bx	lr
  41              	.L3:
  42 0006 00BF     		.align	2
  43              	.L2:
  44 0008 00000000 		.word	.LANCHOR0
  45              		.cfi_endproc
  46              	.LFE134:
  48              		.section	.text.BNO055_Init,"ax",%progbits
  49              		.align	1
  50              		.global	BNO055_Init
  51              		.syntax unified
  52              		.thumb
  53              		.thumb_func
  55              	BNO055_Init:
  56              	.LFB135:
 100:Core/Src/BNO055.c **** 
 101:Core/Src/BNO055.c **** #ifdef BNO055_HARDWARE_RESET
 102:Core/Src/BNO055.c **** 
 103:Core/Src/BNO055.c **** void BNO055_HW_Reset_Mount(uint32_t GPIO_Port, uint16_t GPIO_Pin){
 104:Core/Src/BNO055.c **** 	Reset_Port = GPIO_Port;
 105:Core/Src/BNO055.c **** 	Reset_Pin = GPIO_Pin;
 106:Core/Src/BNO055.c **** }
 107:Core/Src/BNO055.c **** 
 108:Core/Src/BNO055.c **** #endif
 109:Core/Src/BNO055.c **** 
 110:Core/Src/BNO055.c **** BNO055_ERROR BNO055_Init(void){
  57              		.loc 1 110 31 is_stmt 1 view -0
  58              		.cfi_startproc
  59              		@ args = 0, pretend = 0, frame = 8
  60              		@ frame_needed = 0, uses_anonymous_args = 0
  61 0000 70B5     		push	{r4, r5, r6, lr}
  62              		.cfi_def_cfa_offset 16
  63              		.cfi_offset 4, -16
  64              		.cfi_offset 5, -12
ARM GAS  C:\Users\baske\AppData\Local\Temp\ccVCqxIy.s 			page 4


  65              		.cfi_offset 6, -8
  66              		.cfi_offset 14, -4
  67 0002 84B0     		sub	sp, sp, #16
  68              		.cfi_def_cfa_offset 32
 111:Core/Src/BNO055.c **** 
 112:Core/Src/BNO055.c **** 	HAL_StatusTypeDef error;
  69              		.loc 1 112 2 view .LVU5
 113:Core/Src/BNO055.c **** 	uint8_t ID_Check = 0;
  70              		.loc 1 113 2 view .LVU6
  71              		.loc 1 113 10 is_stmt 0 view .LVU7
  72 0004 0023     		movs	r3, #0
  73 0006 8DF80F30 		strb	r3, [sp, #15]
 114:Core/Src/BNO055.c **** 
 115:Core/Src/BNO055.c **** 	/* Read Chip ID Register to see if BNO055 is detected*/
 116:Core/Src/BNO055.c **** 	error = BNO055_Read(BNO055_CHIP_ID, &ID_Check, 1);
  74              		.loc 1 116 2 is_stmt 1 view .LVU8
  75 000a 8DF80C30 		strb	r3, [sp, #12]
  76              	.LVL1:
  77              	.LBB18:
  78              	.LBI18:
  33:Core/Src/BNO055.c **** 
  79              		.loc 1 33 33 view .LVU9
  80              	.LBB19:
  35:Core/Src/BNO055.c **** 
  81              		.loc 1 35 2 view .LVU10
  37:Core/Src/BNO055.c **** 	error |= HAL_I2C_Master_Receive(BNO055_I2C, BNO055_I2C_ADDR<<1, buf, len, BNO055_READ_TIMEOUT);
  82              		.loc 1 37 2 view .LVU11
  37:Core/Src/BNO055.c **** 	error |= HAL_I2C_Master_Receive(BNO055_I2C, BNO055_I2C_ADDR<<1, buf, len, BNO055_READ_TIMEOUT);
  83              		.loc 1 37 10 is_stmt 0 view .LVU12
  84 000e 3B4D     		ldr	r5, .L21
  85 0010 6426     		movs	r6, #100
  86 0012 0096     		str	r6, [sp]
  87 0014 0123     		movs	r3, #1
  88              	.LVL2:
  37:Core/Src/BNO055.c **** 	error |= HAL_I2C_Master_Receive(BNO055_I2C, BNO055_I2C_ADDR<<1, buf, len, BNO055_READ_TIMEOUT);
  89              		.loc 1 37 10 view .LVU13
  90 0016 03AA     		add	r2, sp, #12
  91 0018 5021     		movs	r1, #80
  92 001a 2868     		ldr	r0, [r5]
  93 001c FFF7FEFF 		bl	HAL_I2C_Master_Transmit
  94              	.LVL3:
  37:Core/Src/BNO055.c **** 	error |= HAL_I2C_Master_Receive(BNO055_I2C, BNO055_I2C_ADDR<<1, buf, len, BNO055_READ_TIMEOUT);
  95              		.loc 1 37 10 view .LVU14
  96 0020 0446     		mov	r4, r0
  97              	.LVL4:
  38:Core/Src/BNO055.c **** 
  98              		.loc 1 38 2 is_stmt 1 view .LVU15
  38:Core/Src/BNO055.c **** 
  99              		.loc 1 38 11 is_stmt 0 view .LVU16
 100 0022 0096     		str	r6, [sp]
 101 0024 0123     		movs	r3, #1
 102 0026 0DF10F02 		add	r2, sp, #15
 103              	.LVL5:
  38:Core/Src/BNO055.c **** 
 104              		.loc 1 38 11 view .LVU17
 105 002a 5021     		movs	r1, #80
 106 002c 2868     		ldr	r0, [r5]
ARM GAS  C:\Users\baske\AppData\Local\Temp\ccVCqxIy.s 			page 5


 107 002e FFF7FEFF 		bl	HAL_I2C_Master_Receive
 108              	.LVL6:
  38:Core/Src/BNO055.c **** 
 109              		.loc 1 38 8 view .LVU18
 110 0032 0443     		orrs	r4, r4, r0
 111              	.LVL7:
  40:Core/Src/BNO055.c **** 
 112              		.loc 1 40 2 is_stmt 1 view .LVU19
  40:Core/Src/BNO055.c **** 
 113              		.loc 1 40 2 is_stmt 0 view .LVU20
 114              	.LBE19:
 115              	.LBE18:
 117:Core/Src/BNO055.c **** 	BNO055_ERROR_HANDLE(error);
 116              		.loc 1 117 2 is_stmt 1 view .LVU21
 117              	.LBB20:
 118              	.LBI20:
  61:Core/Src/BNO055.c **** 	if(error != HAL_OK){
 119              		.loc 1 61 20 view .LVU22
 120              	.LBB21:
  62:Core/Src/BNO055.c **** 		HAL_GPIO_WritePin(LD2_GPIO_Port, LD2_Pin, GPIO_PIN_SET);
 121              		.loc 1 62 2 view .LVU23
  62:Core/Src/BNO055.c **** 		HAL_GPIO_WritePin(LD2_GPIO_Port, LD2_Pin, GPIO_PIN_SET);
 122              		.loc 1 62 4 is_stmt 0 view .LVU24
 123 0034 14F0FF0F 		tst	r4, #255
 124 0038 07D1     		bne	.L16
 125              	.LVL8:
  62:Core/Src/BNO055.c **** 		HAL_GPIO_WritePin(LD2_GPIO_Port, LD2_Pin, GPIO_PIN_SET);
 126              		.loc 1 62 4 view .LVU25
 127              	.LBE21:
 128              	.LBE20:
 118:Core/Src/BNO055.c **** 	if(ID_Check != BNO055_EXPECTED_ID)
 129              		.loc 1 118 2 is_stmt 1 view .LVU26
 130              		.loc 1 118 14 is_stmt 0 view .LVU27
 131 003a 9DF80F30 		ldrb	r3, [sp, #15]	@ zero_extendqisi2
 132              		.loc 1 118 4 view .LVU28
 133 003e A02B     		cmp	r3, #160
 134 0040 09D0     		beq	.L17
 119:Core/Src/BNO055.c **** 		return BNO055_NOT_DETECTED;
 135              		.loc 1 119 10 view .LVU29
 136 0042 0124     		movs	r4, #1
 137              	.LVL9:
 138              	.L7:
 120:Core/Src/BNO055.c **** 
 121:Core/Src/BNO055.c **** 	/* Software Reset Module */
 122:Core/Src/BNO055.c **** 	error = BNO055_Write(BNO055_SYS_TRIGGER, BNO055_SYS_RESET);
 123:Core/Src/BNO055.c **** 	BNO055_ERROR_HANDLE(error);
 124:Core/Src/BNO055.c **** 	HAL_Delay(700);													//Necessary Delay when Soft Reset
 125:Core/Src/BNO055.c **** 
 126:Core/Src/BNO055.c **** 	/* Hardware Reset Module */
 127:Core/Src/BNO055.c **** 	#ifdef BNO055_HARDWARE_RESET
 128:Core/Src/BNO055.c **** 		HAL_GPIO_WritePin(Reset_Port, Reset_Pin, GPIO_PIN_RESET);
 129:Core/Src/BNO055.c **** 		HAL_Delay(20);
 130:Core/Src/BNO055.c **** 		HAL_GPIO_WritePin(Reset_Port, Reset_Pin, GPIO_PIN_SET);
 131:Core/Src/BNO055.c **** 	#endif
 132:Core/Src/BNO055.c **** 
 133:Core/Src/BNO055.c **** 	/* Set Register Page to 0 and Clear System Trigger*/
 134:Core/Src/BNO055.c **** 	error = BNO055_Write(BNO055_PAGE_ID, BNO055_PAGE_0);
ARM GAS  C:\Users\baske\AppData\Local\Temp\ccVCqxIy.s 			page 6


 135:Core/Src/BNO055.c **** 	BNO055_ERROR_HANDLE(error);
 136:Core/Src/BNO055.c **** 	state.currentPage = BNO055_PAGE_0;
 137:Core/Src/BNO055.c **** 	HAL_Delay(20);
 138:Core/Src/BNO055.c **** 
 139:Core/Src/BNO055.c **** 	/* Set BNO055 Operation Mode to CONFIG MODE*/
 140:Core/Src/BNO055.c **** 	error = BNO055_Write(BNO055_OPR_MODE, OPR_MODE_CONFIG);
 141:Core/Src/BNO055.c **** 	BNO055_ERROR_HANDLE(error);
 142:Core/Src/BNO055.c **** 	state.currentMode = CONFIG;
 143:Core/Src/BNO055.c **** 
 144:Core/Src/BNO055.c **** 	/* Necessary Delay to Set Operation Mode */
 145:Core/Src/BNO055.c **** 	HAL_Delay(10);
 146:Core/Src/BNO055.c **** 
 147:Core/Src/BNO055.c **** 	return BNO055_SUCCESS;
 148:Core/Src/BNO055.c **** 
 149:Core/Src/BNO055.c **** }
 139              		.loc 1 149 1 view .LVU30
 140 0044 2046     		mov	r0, r4
 141 0046 04B0     		add	sp, sp, #16
 142              		.cfi_remember_state
 143              		.cfi_def_cfa_offset 16
 144              		@ sp needed
 145 0048 70BD     		pop	{r4, r5, r6, pc}
 146              	.LVL10:
 147              	.L16:
 148              		.cfi_restore_state
 149              	.LBB23:
 150              	.LBB22:
  63:Core/Src/BNO055.c **** 		while(1);
 151              		.loc 1 63 3 is_stmt 1 view .LVU31
 152 004a 0122     		movs	r2, #1
 153 004c 2021     		movs	r1, #32
 154 004e 2C48     		ldr	r0, .L21+4
 155 0050 FFF7FEFF 		bl	HAL_GPIO_WritePin
 156              	.LVL11:
 157              	.L6:
  64:Core/Src/BNO055.c **** 	}
 158              		.loc 1 64 3 view .LVU32
  64:Core/Src/BNO055.c **** 	}
 159              		.loc 1 64 8 view .LVU33
 160 0054 FEE7     		b	.L6
 161              	.LVL12:
 162              	.L17:
  64:Core/Src/BNO055.c **** 	}
 163              		.loc 1 64 8 is_stmt 0 view .LVU34
 164              	.LBE22:
 165              	.LBE23:
 122:Core/Src/BNO055.c **** 	BNO055_ERROR_HANDLE(error);
 166              		.loc 1 122 2 is_stmt 1 view .LVU35
 167              	.LBB24:
 168              	.LBI24:
  47:Core/Src/BNO055.c **** 
 169              		.loc 1 47 33 view .LVU36
 170              	.LBB25:
  49:Core/Src/BNO055.c **** 	uint8_t transmitBuf[2] = {reg, data};
 171              		.loc 1 49 2 view .LVU37
  50:Core/Src/BNO055.c **** 
 172              		.loc 1 50 2 view .LVU38
ARM GAS  C:\Users\baske\AppData\Local\Temp\ccVCqxIy.s 			page 7


  50:Core/Src/BNO055.c **** 
 173              		.loc 1 50 10 is_stmt 0 view .LVU39
 174 0056 3F23     		movs	r3, #63
 175 0058 8DF80C30 		strb	r3, [sp, #12]
 176 005c 2023     		movs	r3, #32
 177 005e 8DF80D30 		strb	r3, [sp, #13]
  52:Core/Src/BNO055.c **** 
 178              		.loc 1 52 2 is_stmt 1 view .LVU40
  52:Core/Src/BNO055.c **** 
 179              		.loc 1 52 10 is_stmt 0 view .LVU41
 180 0062 6423     		movs	r3, #100
 181 0064 0093     		str	r3, [sp]
 182 0066 0223     		movs	r3, #2
 183 0068 03AA     		add	r2, sp, #12
 184 006a 5021     		movs	r1, #80
 185 006c 2348     		ldr	r0, .L21
 186 006e 0068     		ldr	r0, [r0]
 187 0070 FFF7FEFF 		bl	HAL_I2C_Master_Transmit
 188              	.LVL13:
  54:Core/Src/BNO055.c **** 
 189              		.loc 1 54 2 is_stmt 1 view .LVU42
  54:Core/Src/BNO055.c **** 
 190              		.loc 1 54 2 is_stmt 0 view .LVU43
 191              	.LBE25:
 192              	.LBE24:
 123:Core/Src/BNO055.c **** 	HAL_Delay(700);													//Necessary Delay when Soft Reset
 193              		.loc 1 123 2 is_stmt 1 view .LVU44
 194              	.LBB26:
 195              	.LBI26:
  61:Core/Src/BNO055.c **** 	if(error != HAL_OK){
 196              		.loc 1 61 20 view .LVU45
 197              	.LBB27:
  62:Core/Src/BNO055.c **** 		HAL_GPIO_WritePin(LD2_GPIO_Port, LD2_Pin, GPIO_PIN_SET);
 198              		.loc 1 62 2 view .LVU46
  62:Core/Src/BNO055.c **** 		HAL_GPIO_WritePin(LD2_GPIO_Port, LD2_Pin, GPIO_PIN_SET);
 199              		.loc 1 62 4 is_stmt 0 view .LVU47
 200 0074 80BB     		cbnz	r0, .L18
 201              	.LVL14:
  62:Core/Src/BNO055.c **** 		HAL_GPIO_WritePin(LD2_GPIO_Port, LD2_Pin, GPIO_PIN_SET);
 202              		.loc 1 62 4 view .LVU48
 203              	.LBE27:
 204              	.LBE26:
 124:Core/Src/BNO055.c **** 
 205              		.loc 1 124 2 is_stmt 1 view .LVU49
 206 0076 4FF42F70 		mov	r0, #700
 207              	.LVL15:
 124:Core/Src/BNO055.c **** 
 208              		.loc 1 124 2 is_stmt 0 view .LVU50
 209 007a FFF7FEFF 		bl	HAL_Delay
 210              	.LVL16:
 134:Core/Src/BNO055.c **** 	BNO055_ERROR_HANDLE(error);
 211              		.loc 1 134 2 is_stmt 1 view .LVU51
 212              	.LBB29:
 213              	.LBI29:
  47:Core/Src/BNO055.c **** 
 214              		.loc 1 47 33 view .LVU52
 215              	.LBB30:
ARM GAS  C:\Users\baske\AppData\Local\Temp\ccVCqxIy.s 			page 8


  49:Core/Src/BNO055.c **** 	uint8_t transmitBuf[2] = {reg, data};
 216              		.loc 1 49 2 view .LVU53
  50:Core/Src/BNO055.c **** 
 217              		.loc 1 50 2 view .LVU54
  50:Core/Src/BNO055.c **** 
 218              		.loc 1 50 10 is_stmt 0 view .LVU55
 219 007e 0723     		movs	r3, #7
 220 0080 8DF80C30 		strb	r3, [sp, #12]
 221 0084 0023     		movs	r3, #0
 222 0086 8DF80D30 		strb	r3, [sp, #13]
  52:Core/Src/BNO055.c **** 
 223              		.loc 1 52 2 is_stmt 1 view .LVU56
  52:Core/Src/BNO055.c **** 
 224              		.loc 1 52 10 is_stmt 0 view .LVU57
 225 008a 6423     		movs	r3, #100
 226 008c 0093     		str	r3, [sp]
 227 008e 0223     		movs	r3, #2
 228 0090 03AA     		add	r2, sp, #12
 229 0092 5021     		movs	r1, #80
 230 0094 1948     		ldr	r0, .L21
 231 0096 0068     		ldr	r0, [r0]
 232 0098 FFF7FEFF 		bl	HAL_I2C_Master_Transmit
 233              	.LVL17:
  54:Core/Src/BNO055.c **** 
 234              		.loc 1 54 2 is_stmt 1 view .LVU58
  54:Core/Src/BNO055.c **** 
 235              		.loc 1 54 2 is_stmt 0 view .LVU59
 236              	.LBE30:
 237              	.LBE29:
 135:Core/Src/BNO055.c **** 	state.currentPage = BNO055_PAGE_0;
 238              		.loc 1 135 2 is_stmt 1 view .LVU60
 239              	.LBB31:
 240              	.LBI31:
  61:Core/Src/BNO055.c **** 	if(error != HAL_OK){
 241              		.loc 1 61 20 view .LVU61
 242              	.LBB32:
  62:Core/Src/BNO055.c **** 		HAL_GPIO_WritePin(LD2_GPIO_Port, LD2_Pin, GPIO_PIN_SET);
 243              		.loc 1 62 2 view .LVU62
  62:Core/Src/BNO055.c **** 		HAL_GPIO_WritePin(LD2_GPIO_Port, LD2_Pin, GPIO_PIN_SET);
 244              		.loc 1 62 4 is_stmt 0 view .LVU63
 245 009c 10BB     		cbnz	r0, .L19
 246              	.LVL18:
  62:Core/Src/BNO055.c **** 		HAL_GPIO_WritePin(LD2_GPIO_Port, LD2_Pin, GPIO_PIN_SET);
 247              		.loc 1 62 4 view .LVU64
 248              	.LBE32:
 249              	.LBE31:
 136:Core/Src/BNO055.c **** 	HAL_Delay(20);
 250              		.loc 1 136 2 is_stmt 1 view .LVU65
 136:Core/Src/BNO055.c **** 	HAL_Delay(20);
 251              		.loc 1 136 20 is_stmt 0 view .LVU66
 252 009e 0024     		movs	r4, #0
 253 00a0 184B     		ldr	r3, .L21+8
 254 00a2 5C70     		strb	r4, [r3, #1]
 137:Core/Src/BNO055.c **** 
 255              		.loc 1 137 2 is_stmt 1 view .LVU67
 256 00a4 1420     		movs	r0, #20
 257              	.LVL19:
ARM GAS  C:\Users\baske\AppData\Local\Temp\ccVCqxIy.s 			page 9


 137:Core/Src/BNO055.c **** 
 258              		.loc 1 137 2 is_stmt 0 view .LVU68
 259 00a6 FFF7FEFF 		bl	HAL_Delay
 260              	.LVL20:
 140:Core/Src/BNO055.c **** 	BNO055_ERROR_HANDLE(error);
 261              		.loc 1 140 2 is_stmt 1 view .LVU69
 262              	.LBB34:
 263              	.LBI34:
  47:Core/Src/BNO055.c **** 
 264              		.loc 1 47 33 view .LVU70
 265              	.LBB35:
  49:Core/Src/BNO055.c **** 	uint8_t transmitBuf[2] = {reg, data};
 266              		.loc 1 49 2 view .LVU71
  50:Core/Src/BNO055.c **** 
 267              		.loc 1 50 2 view .LVU72
  50:Core/Src/BNO055.c **** 
 268              		.loc 1 50 10 is_stmt 0 view .LVU73
 269 00aa 3D23     		movs	r3, #61
 270 00ac 8DF80C30 		strb	r3, [sp, #12]
 271 00b0 8DF80D40 		strb	r4, [sp, #13]
  52:Core/Src/BNO055.c **** 
 272              		.loc 1 52 2 is_stmt 1 view .LVU74
  52:Core/Src/BNO055.c **** 
 273              		.loc 1 52 10 is_stmt 0 view .LVU75
 274 00b4 6423     		movs	r3, #100
 275 00b6 0093     		str	r3, [sp]
 276 00b8 0223     		movs	r3, #2
 277 00ba 03AA     		add	r2, sp, #12
 278 00bc 5021     		movs	r1, #80
 279 00be 0F48     		ldr	r0, .L21
 280 00c0 0068     		ldr	r0, [r0]
 281 00c2 FFF7FEFF 		bl	HAL_I2C_Master_Transmit
 282              	.LVL21:
  54:Core/Src/BNO055.c **** 
 283              		.loc 1 54 2 is_stmt 1 view .LVU76
  54:Core/Src/BNO055.c **** 
 284              		.loc 1 54 2 is_stmt 0 view .LVU77
 285              	.LBE35:
 286              	.LBE34:
 141:Core/Src/BNO055.c **** 	state.currentMode = CONFIG;
 287              		.loc 1 141 2 is_stmt 1 view .LVU78
 288              	.LBB36:
 289              	.LBI36:
  61:Core/Src/BNO055.c **** 	if(error != HAL_OK){
 290              		.loc 1 61 20 view .LVU79
 291              	.LBB37:
  62:Core/Src/BNO055.c **** 		HAL_GPIO_WritePin(LD2_GPIO_Port, LD2_Pin, GPIO_PIN_SET);
 292              		.loc 1 62 2 view .LVU80
  62:Core/Src/BNO055.c **** 		HAL_GPIO_WritePin(LD2_GPIO_Port, LD2_Pin, GPIO_PIN_SET);
 293              		.loc 1 62 4 is_stmt 0 view .LVU81
 294 00c6 0446     		mov	r4, r0
 295 00c8 90B9     		cbnz	r0, .L20
 296              	.LVL22:
  62:Core/Src/BNO055.c **** 		HAL_GPIO_WritePin(LD2_GPIO_Port, LD2_Pin, GPIO_PIN_SET);
 297              		.loc 1 62 4 view .LVU82
 298              	.LBE37:
 299              	.LBE36:
ARM GAS  C:\Users\baske\AppData\Local\Temp\ccVCqxIy.s 			page 10


 142:Core/Src/BNO055.c **** 
 300              		.loc 1 142 2 is_stmt 1 view .LVU83
 142:Core/Src/BNO055.c **** 
 301              		.loc 1 142 20 is_stmt 0 view .LVU84
 302 00ca 0E4B     		ldr	r3, .L21+8
 303 00cc 0022     		movs	r2, #0
 304 00ce 1A70     		strb	r2, [r3]
 145:Core/Src/BNO055.c **** 
 305              		.loc 1 145 2 is_stmt 1 view .LVU85
 306 00d0 0A20     		movs	r0, #10
 307              	.LVL23:
 145:Core/Src/BNO055.c **** 
 308              		.loc 1 145 2 is_stmt 0 view .LVU86
 309 00d2 FFF7FEFF 		bl	HAL_Delay
 310              	.LVL24:
 147:Core/Src/BNO055.c **** 
 311              		.loc 1 147 2 is_stmt 1 view .LVU87
 147:Core/Src/BNO055.c **** 
 312              		.loc 1 147 9 is_stmt 0 view .LVU88
 313 00d6 B5E7     		b	.L7
 314              	.LVL25:
 315              	.L18:
 316              	.LBB39:
 317              	.LBB28:
  63:Core/Src/BNO055.c **** 		while(1);
 318              		.loc 1 63 3 is_stmt 1 view .LVU89
 319 00d8 0122     		movs	r2, #1
 320 00da 2021     		movs	r1, #32
 321 00dc 0848     		ldr	r0, .L21+4
 322              	.LVL26:
  63:Core/Src/BNO055.c **** 		while(1);
 323              		.loc 1 63 3 is_stmt 0 view .LVU90
 324 00de FFF7FEFF 		bl	HAL_GPIO_WritePin
 325              	.LVL27:
 326              	.L9:
  64:Core/Src/BNO055.c **** 	}
 327              		.loc 1 64 3 is_stmt 1 view .LVU91
  64:Core/Src/BNO055.c **** 	}
 328              		.loc 1 64 8 view .LVU92
 329 00e2 FEE7     		b	.L9
 330              	.LVL28:
 331              	.L19:
  64:Core/Src/BNO055.c **** 	}
 332              		.loc 1 64 8 is_stmt 0 view .LVU93
 333              	.LBE28:
 334              	.LBE39:
 335              	.LBB40:
 336              	.LBB33:
  63:Core/Src/BNO055.c **** 		while(1);
 337              		.loc 1 63 3 is_stmt 1 view .LVU94
 338 00e4 0122     		movs	r2, #1
 339 00e6 2021     		movs	r1, #32
 340 00e8 0548     		ldr	r0, .L21+4
 341              	.LVL29:
  63:Core/Src/BNO055.c **** 		while(1);
 342              		.loc 1 63 3 is_stmt 0 view .LVU95
 343 00ea FFF7FEFF 		bl	HAL_GPIO_WritePin
ARM GAS  C:\Users\baske\AppData\Local\Temp\ccVCqxIy.s 			page 11


 344              	.LVL30:
 345              	.L11:
  64:Core/Src/BNO055.c **** 	}
 346              		.loc 1 64 3 is_stmt 1 view .LVU96
  64:Core/Src/BNO055.c **** 	}
 347              		.loc 1 64 8 view .LVU97
 348 00ee FEE7     		b	.L11
 349              	.LVL31:
 350              	.L20:
  64:Core/Src/BNO055.c **** 	}
 351              		.loc 1 64 8 is_stmt 0 view .LVU98
 352              	.LBE33:
 353              	.LBE40:
 354              	.LBB41:
 355              	.LBB38:
  63:Core/Src/BNO055.c **** 		while(1);
 356              		.loc 1 63 3 is_stmt 1 view .LVU99
 357 00f0 0122     		movs	r2, #1
 358 00f2 2021     		movs	r1, #32
 359 00f4 0248     		ldr	r0, .L21+4
 360              	.LVL32:
  63:Core/Src/BNO055.c **** 		while(1);
 361              		.loc 1 63 3 is_stmt 0 view .LVU100
 362 00f6 FFF7FEFF 		bl	HAL_GPIO_WritePin
 363              	.LVL33:
 364              	.L13:
  64:Core/Src/BNO055.c **** 	}
 365              		.loc 1 64 3 is_stmt 1 view .LVU101
  64:Core/Src/BNO055.c **** 	}
 366              		.loc 1 64 8 view .LVU102
 367 00fa FEE7     		b	.L13
 368              	.L22:
 369              		.align	2
 370              	.L21:
 371 00fc 00000000 		.word	.LANCHOR0
 372 0100 00000240 		.word	1073872896
 373 0104 00000000 		.word	.LANCHOR1
 374              	.LBE38:
 375              	.LBE41:
 376              		.cfi_endproc
 377              	.LFE135:
 379              		.section	.text.BNO055_Set_Unit,"ax",%progbits
 380              		.align	1
 381              		.global	BNO055_Set_Unit
 382              		.syntax unified
 383              		.thumb
 384              		.thumb_func
 386              	BNO055_Set_Unit:
 387              	.LVL34:
 388              	.LFB136:
 150:Core/Src/BNO055.c **** 
 151:Core/Src/BNO055.c **** BNO055_ERROR BNO055_Set_Unit(BNO055_ACCEL_GRAV_UNIT accUnit, BNO055_ANGULAR_RATE_UNIT angRateUnit, 
 389              		.loc 1 151 155 view -0
 390              		.cfi_startproc
 391              		@ args = 0, pretend = 0, frame = 8
 392              		@ frame_needed = 0, uses_anonymous_args = 0
 393              		.loc 1 151 155 is_stmt 0 view .LVU104
ARM GAS  C:\Users\baske\AppData\Local\Temp\ccVCqxIy.s 			page 12


 394 0000 2DE9F041 		push	{r4, r5, r6, r7, r8, lr}
 395              		.cfi_def_cfa_offset 24
 396              		.cfi_offset 4, -24
 397              		.cfi_offset 5, -20
 398              		.cfi_offset 6, -16
 399              		.cfi_offset 7, -12
 400              		.cfi_offset 8, -8
 401              		.cfi_offset 14, -4
 402 0004 84B0     		sub	sp, sp, #16
 403              		.cfi_def_cfa_offset 40
 404 0006 0746     		mov	r7, r0
 405 0008 8846     		mov	r8, r1
 406 000a 1646     		mov	r6, r2
 407 000c 1D46     		mov	r5, r3
 152:Core/Src/BNO055.c **** 
 153:Core/Src/BNO055.c **** 	HAL_StatusTypeDef error;
 408              		.loc 1 153 2 is_stmt 1 view .LVU105
 154:Core/Src/BNO055.c **** 
 155:Core/Src/BNO055.c **** 	/* Makes sure BNO055 is in CONFIG mode and Page 0 */
 156:Core/Src/BNO055.c **** 	BNO055_STATUS_CHECK_AND_SET(&state, CONFIG, BNO055_PAGE_0);
 409              		.loc 1 156 2 view .LVU106
 410              	.LVL35:
 411              	.LBB56:
 412              	.LBI56:
  73:Core/Src/BNO055.c **** 
 413              		.loc 1 73 20 view .LVU107
 414              	.LBB57:
  75:Core/Src/BNO055.c **** 
 415              		.loc 1 75 2 view .LVU108
  78:Core/Src/BNO055.c **** 		error = BNO055_Write(BNO055_OPR_MODE, newMode);
 416              		.loc 1 78 2 view .LVU109
  78:Core/Src/BNO055.c **** 		error = BNO055_Write(BNO055_OPR_MODE, newMode);
 417              		.loc 1 78 14 is_stmt 0 view .LVU110
 418 000e 304C     		ldr	r4, .L38
 419 0010 2478     		ldrb	r4, [r4]	@ zero_extendqisi2
  78:Core/Src/BNO055.c **** 		error = BNO055_Write(BNO055_OPR_MODE, newMode);
 420              		.loc 1 78 4 view .LVU111
 421 0012 ECB9     		cbnz	r4, .L33
 422              	.LVL36:
 423              	.L24:
  86:Core/Src/BNO055.c **** 		error = BNO055_Write(BNO055_PAGE_ID, newPage);
 424              		.loc 1 86 2 is_stmt 1 view .LVU112
  86:Core/Src/BNO055.c **** 		error = BNO055_Write(BNO055_PAGE_ID, newPage);
 425              		.loc 1 86 14 is_stmt 0 view .LVU113
 426 0014 2E4B     		ldr	r3, .L38
 427 0016 5B78     		ldrb	r3, [r3, #1]	@ zero_extendqisi2
  86:Core/Src/BNO055.c **** 		error = BNO055_Write(BNO055_PAGE_ID, newPage);
 428              		.loc 1 86 4 view .LVU114
 429 0018 002B     		cmp	r3, #0
 430 001a 36D1     		bne	.L34
 431              	.L27:
 432              	.LVL37:
  86:Core/Src/BNO055.c **** 		error = BNO055_Write(BNO055_PAGE_ID, newPage);
 433              		.loc 1 86 4 view .LVU115
 434              	.LBE57:
 435              	.LBE56:
 157:Core/Src/BNO055.c **** 
ARM GAS  C:\Users\baske\AppData\Local\Temp\ccVCqxIy.s 			page 13


 158:Core/Src/BNO055.c **** 	/* Set Unit */
 159:Core/Src/BNO055.c **** 	uint8_t temp = accUnit | angRateUnit | eulerUnit | tempUnit;
 436              		.loc 1 159 2 is_stmt 1 view .LVU116
 437              		.loc 1 159 10 is_stmt 0 view .LVU117
 438 001c 47EA0801 		orr	r1, r7, r8
 439 0020 46EA0102 		orr	r2, r6, r1
 440 0024 45EA0203 		orr	r3, r5, r2
 441              	.LVL38:
 160:Core/Src/BNO055.c **** 	error = BNO055_Write(BNO055_UNIT_SEL, temp);
 442              		.loc 1 160 2 is_stmt 1 view .LVU118
 443              	.LBB71:
 444              	.LBI71:
  47:Core/Src/BNO055.c **** 
 445              		.loc 1 47 33 view .LVU119
 446              	.LBB72:
  49:Core/Src/BNO055.c **** 	uint8_t transmitBuf[2] = {reg, data};
 447              		.loc 1 49 2 view .LVU120
  50:Core/Src/BNO055.c **** 
 448              		.loc 1 50 2 view .LVU121
  50:Core/Src/BNO055.c **** 
 449              		.loc 1 50 10 is_stmt 0 view .LVU122
 450 0028 3B22     		movs	r2, #59
 451 002a 8DF80C20 		strb	r2, [sp, #12]
 452 002e 8DF80D30 		strb	r3, [sp, #13]
  52:Core/Src/BNO055.c **** 
 453              		.loc 1 52 2 is_stmt 1 view .LVU123
  52:Core/Src/BNO055.c **** 
 454              		.loc 1 52 10 is_stmt 0 view .LVU124
 455 0032 6423     		movs	r3, #100
 456              	.LVL39:
  52:Core/Src/BNO055.c **** 
 457              		.loc 1 52 10 view .LVU125
 458 0034 0093     		str	r3, [sp]
 459 0036 0223     		movs	r3, #2
 460 0038 03AA     		add	r2, sp, #12
 461 003a 5021     		movs	r1, #80
 462 003c 2548     		ldr	r0, .L38+4
 463 003e 0068     		ldr	r0, [r0]
 464 0040 FFF7FEFF 		bl	HAL_I2C_Master_Transmit
 465              	.LVL40:
  54:Core/Src/BNO055.c **** 
 466              		.loc 1 54 2 is_stmt 1 view .LVU126
  54:Core/Src/BNO055.c **** 
 467              		.loc 1 54 2 is_stmt 0 view .LVU127
 468              	.LBE72:
 469              	.LBE71:
 161:Core/Src/BNO055.c **** 	BNO055_ERROR_HANDLE(error);
 470              		.loc 1 161 2 is_stmt 1 view .LVU128
 471              	.LBB73:
 472              	.LBI73:
  61:Core/Src/BNO055.c **** 	if(error != HAL_OK){
 473              		.loc 1 61 20 view .LVU129
 474              	.LBB74:
  62:Core/Src/BNO055.c **** 		HAL_GPIO_WritePin(LD2_GPIO_Port, LD2_Pin, GPIO_PIN_SET);
 475              		.loc 1 62 2 view .LVU130
  62:Core/Src/BNO055.c **** 		HAL_GPIO_WritePin(LD2_GPIO_Port, LD2_Pin, GPIO_PIN_SET);
 476              		.loc 1 62 4 is_stmt 0 view .LVU131
ARM GAS  C:\Users\baske\AppData\Local\Temp\ccVCqxIy.s 			page 14


 477 0044 0028     		cmp	r0, #0
 478 0046 3DD1     		bne	.L35
 479              	.LVL41:
  62:Core/Src/BNO055.c **** 		HAL_GPIO_WritePin(LD2_GPIO_Port, LD2_Pin, GPIO_PIN_SET);
 480              		.loc 1 62 4 view .LVU132
 481              	.LBE74:
 482              	.LBE73:
 162:Core/Src/BNO055.c **** 
 163:Core/Src/BNO055.c **** 	return BNO055_SUCCESS;
 483              		.loc 1 163 2 is_stmt 1 view .LVU133
 164:Core/Src/BNO055.c **** }
 484              		.loc 1 164 1 is_stmt 0 view .LVU134
 485 0048 0020     		movs	r0, #0
 486              	.LVL42:
 487              		.loc 1 164 1 view .LVU135
 488 004a 04B0     		add	sp, sp, #16
 489              		.cfi_remember_state
 490              		.cfi_def_cfa_offset 24
 491              		@ sp needed
 492 004c BDE8F081 		pop	{r4, r5, r6, r7, r8, pc}
 493              	.LVL43:
 494              	.L33:
 495              		.cfi_restore_state
 496              	.LBB76:
 497              	.LBB70:
  79:Core/Src/BNO055.c **** 		BNO055_ERROR_HANDLE(error);
 498              		.loc 1 79 3 is_stmt 1 view .LVU136
 499              	.LBB58:
 500              	.LBI58:
  47:Core/Src/BNO055.c **** 
 501              		.loc 1 47 33 view .LVU137
 502              	.LBB59:
  49:Core/Src/BNO055.c **** 	uint8_t transmitBuf[2] = {reg, data};
 503              		.loc 1 49 2 view .LVU138
  50:Core/Src/BNO055.c **** 
 504              		.loc 1 50 2 view .LVU139
  50:Core/Src/BNO055.c **** 
 505              		.loc 1 50 10 is_stmt 0 view .LVU140
 506 0050 3D23     		movs	r3, #61
 507              	.LVL44:
  50:Core/Src/BNO055.c **** 
 508              		.loc 1 50 10 view .LVU141
 509 0052 8DF80C30 		strb	r3, [sp, #12]
 510 0056 0023     		movs	r3, #0
 511 0058 8DF80D30 		strb	r3, [sp, #13]
  52:Core/Src/BNO055.c **** 
 512              		.loc 1 52 2 is_stmt 1 view .LVU142
  52:Core/Src/BNO055.c **** 
 513              		.loc 1 52 10 is_stmt 0 view .LVU143
 514 005c 6423     		movs	r3, #100
 515 005e 0093     		str	r3, [sp]
 516 0060 0223     		movs	r3, #2
 517 0062 03AA     		add	r2, sp, #12
 518              	.LVL45:
  52:Core/Src/BNO055.c **** 
 519              		.loc 1 52 10 view .LVU144
 520 0064 5021     		movs	r1, #80
ARM GAS  C:\Users\baske\AppData\Local\Temp\ccVCqxIy.s 			page 15


 521              	.LVL46:
  52:Core/Src/BNO055.c **** 
 522              		.loc 1 52 10 view .LVU145
 523 0066 1B48     		ldr	r0, .L38+4
 524              	.LVL47:
  52:Core/Src/BNO055.c **** 
 525              		.loc 1 52 10 view .LVU146
 526 0068 0068     		ldr	r0, [r0]
 527 006a FFF7FEFF 		bl	HAL_I2C_Master_Transmit
 528              	.LVL48:
  54:Core/Src/BNO055.c **** 
 529              		.loc 1 54 2 is_stmt 1 view .LVU147
  54:Core/Src/BNO055.c **** 
 530              		.loc 1 54 2 is_stmt 0 view .LVU148
 531              	.LBE59:
 532              	.LBE58:
  80:Core/Src/BNO055.c **** 		currState->currentMode = newMode;
 533              		.loc 1 80 3 is_stmt 1 view .LVU149
 534              	.LBB60:
 535              	.LBI60:
  61:Core/Src/BNO055.c **** 	if(error != HAL_OK){
 536              		.loc 1 61 20 view .LVU150
 537              	.LBB61:
  62:Core/Src/BNO055.c **** 		HAL_GPIO_WritePin(LD2_GPIO_Port, LD2_Pin, GPIO_PIN_SET);
 538              		.loc 1 62 2 view .LVU151
  62:Core/Src/BNO055.c **** 		HAL_GPIO_WritePin(LD2_GPIO_Port, LD2_Pin, GPIO_PIN_SET);
 539              		.loc 1 62 4 is_stmt 0 view .LVU152
 540 006e 30B9     		cbnz	r0, .L36
 541              	.LVL49:
  62:Core/Src/BNO055.c **** 		HAL_GPIO_WritePin(LD2_GPIO_Port, LD2_Pin, GPIO_PIN_SET);
 542              		.loc 1 62 4 view .LVU153
 543              	.LBE61:
 544              	.LBE60:
  81:Core/Src/BNO055.c **** 		HAL_Delay(20);
 545              		.loc 1 81 3 is_stmt 1 view .LVU154
  81:Core/Src/BNO055.c **** 		HAL_Delay(20);
 546              		.loc 1 81 26 is_stmt 0 view .LVU155
 547 0070 174B     		ldr	r3, .L38
 548 0072 0022     		movs	r2, #0
 549 0074 1A70     		strb	r2, [r3]
  82:Core/Src/BNO055.c **** 	}
 550              		.loc 1 82 3 is_stmt 1 view .LVU156
 551 0076 1420     		movs	r0, #20
 552              	.LVL50:
  82:Core/Src/BNO055.c **** 	}
 553              		.loc 1 82 3 is_stmt 0 view .LVU157
 554 0078 FFF7FEFF 		bl	HAL_Delay
 555              	.LVL51:
 556 007c CAE7     		b	.L24
 557              	.LVL52:
 558              	.L36:
 559              	.LBB63:
 560              	.LBB62:
  63:Core/Src/BNO055.c **** 		while(1);
 561              		.loc 1 63 3 is_stmt 1 view .LVU158
 562 007e 0122     		movs	r2, #1
 563 0080 2021     		movs	r1, #32
ARM GAS  C:\Users\baske\AppData\Local\Temp\ccVCqxIy.s 			page 16


 564 0082 1548     		ldr	r0, .L38+8
 565              	.LVL53:
  63:Core/Src/BNO055.c **** 		while(1);
 566              		.loc 1 63 3 is_stmt 0 view .LVU159
 567 0084 FFF7FEFF 		bl	HAL_GPIO_WritePin
 568              	.LVL54:
 569              	.L26:
  64:Core/Src/BNO055.c **** 	}
 570              		.loc 1 64 3 is_stmt 1 view .LVU160
  64:Core/Src/BNO055.c **** 	}
 571              		.loc 1 64 8 view .LVU161
 572 0088 FEE7     		b	.L26
 573              	.L34:
  64:Core/Src/BNO055.c **** 	}
 574              		.loc 1 64 8 is_stmt 0 view .LVU162
 575              	.LBE62:
 576              	.LBE63:
  87:Core/Src/BNO055.c **** 		BNO055_ERROR_HANDLE(error);
 577              		.loc 1 87 3 is_stmt 1 view .LVU163
 578              	.LVL55:
 579              	.LBB64:
 580              	.LBI64:
  47:Core/Src/BNO055.c **** 
 581              		.loc 1 47 33 view .LVU164
 582              	.LBB65:
  49:Core/Src/BNO055.c **** 	uint8_t transmitBuf[2] = {reg, data};
 583              		.loc 1 49 2 view .LVU165
  50:Core/Src/BNO055.c **** 
 584              		.loc 1 50 2 view .LVU166
  50:Core/Src/BNO055.c **** 
 585              		.loc 1 50 10 is_stmt 0 view .LVU167
 586 008a 0723     		movs	r3, #7
 587 008c 8DF80C30 		strb	r3, [sp, #12]
 588 0090 0023     		movs	r3, #0
 589 0092 8DF80D30 		strb	r3, [sp, #13]
  52:Core/Src/BNO055.c **** 
 590              		.loc 1 52 2 is_stmt 1 view .LVU168
  52:Core/Src/BNO055.c **** 
 591              		.loc 1 52 10 is_stmt 0 view .LVU169
 592 0096 6423     		movs	r3, #100
 593 0098 0093     		str	r3, [sp]
 594 009a 0223     		movs	r3, #2
 595 009c 03AA     		add	r2, sp, #12
 596 009e 5021     		movs	r1, #80
 597 00a0 0C48     		ldr	r0, .L38+4
 598 00a2 0068     		ldr	r0, [r0]
 599 00a4 FFF7FEFF 		bl	HAL_I2C_Master_Transmit
 600              	.LVL56:
  54:Core/Src/BNO055.c **** 
 601              		.loc 1 54 2 is_stmt 1 view .LVU170
  54:Core/Src/BNO055.c **** 
 602              		.loc 1 54 2 is_stmt 0 view .LVU171
 603              	.LBE65:
 604              	.LBE64:
  88:Core/Src/BNO055.c **** 		currState->currentPage = newPage;
 605              		.loc 1 88 3 is_stmt 1 view .LVU172
 606              	.LBB66:
ARM GAS  C:\Users\baske\AppData\Local\Temp\ccVCqxIy.s 			page 17


 607              	.LBI66:
  61:Core/Src/BNO055.c **** 	if(error != HAL_OK){
 608              		.loc 1 61 20 view .LVU173
 609              	.LBB67:
  62:Core/Src/BNO055.c **** 		HAL_GPIO_WritePin(LD2_GPIO_Port, LD2_Pin, GPIO_PIN_SET);
 610              		.loc 1 62 2 view .LVU174
  62:Core/Src/BNO055.c **** 		HAL_GPIO_WritePin(LD2_GPIO_Port, LD2_Pin, GPIO_PIN_SET);
 611              		.loc 1 62 4 is_stmt 0 view .LVU175
 612 00a8 30B9     		cbnz	r0, .L37
 613              	.LVL57:
  62:Core/Src/BNO055.c **** 		HAL_GPIO_WritePin(LD2_GPIO_Port, LD2_Pin, GPIO_PIN_SET);
 614              		.loc 1 62 4 view .LVU176
 615              	.LBE67:
 616              	.LBE66:
  89:Core/Src/BNO055.c **** 		HAL_Delay(20);
 617              		.loc 1 89 3 is_stmt 1 view .LVU177
  89:Core/Src/BNO055.c **** 		HAL_Delay(20);
 618              		.loc 1 89 26 is_stmt 0 view .LVU178
 619 00aa 094B     		ldr	r3, .L38
 620 00ac 0022     		movs	r2, #0
 621 00ae 5A70     		strb	r2, [r3, #1]
  90:Core/Src/BNO055.c **** 	}
 622              		.loc 1 90 3 is_stmt 1 view .LVU179
 623 00b0 1420     		movs	r0, #20
 624              	.LVL58:
  90:Core/Src/BNO055.c **** 	}
 625              		.loc 1 90 3 is_stmt 0 view .LVU180
 626 00b2 FFF7FEFF 		bl	HAL_Delay
 627              	.LVL59:
 628 00b6 B1E7     		b	.L27
 629              	.LVL60:
 630              	.L37:
 631              	.LBB69:
 632              	.LBB68:
  63:Core/Src/BNO055.c **** 		while(1);
 633              		.loc 1 63 3 is_stmt 1 view .LVU181
 634 00b8 0122     		movs	r2, #1
 635 00ba 2021     		movs	r1, #32
 636 00bc 0648     		ldr	r0, .L38+8
 637              	.LVL61:
  63:Core/Src/BNO055.c **** 		while(1);
 638              		.loc 1 63 3 is_stmt 0 view .LVU182
 639 00be FFF7FEFF 		bl	HAL_GPIO_WritePin
 640              	.LVL62:
 641              	.L29:
  64:Core/Src/BNO055.c **** 	}
 642              		.loc 1 64 3 is_stmt 1 view .LVU183
  64:Core/Src/BNO055.c **** 	}
 643              		.loc 1 64 8 view .LVU184
 644 00c2 FEE7     		b	.L29
 645              	.LVL63:
 646              	.L35:
  64:Core/Src/BNO055.c **** 	}
 647              		.loc 1 64 8 is_stmt 0 view .LVU185
 648              	.LBE68:
 649              	.LBE69:
 650              	.LBE70:
ARM GAS  C:\Users\baske\AppData\Local\Temp\ccVCqxIy.s 			page 18


 651              	.LBE76:
 652              	.LBB77:
 653              	.LBB75:
  63:Core/Src/BNO055.c **** 		while(1);
 654              		.loc 1 63 3 is_stmt 1 view .LVU186
 655 00c4 0122     		movs	r2, #1
 656 00c6 2021     		movs	r1, #32
 657 00c8 0348     		ldr	r0, .L38+8
 658              	.LVL64:
  63:Core/Src/BNO055.c **** 		while(1);
 659              		.loc 1 63 3 is_stmt 0 view .LVU187
 660 00ca FFF7FEFF 		bl	HAL_GPIO_WritePin
 661              	.LVL65:
 662              	.L31:
  64:Core/Src/BNO055.c **** 	}
 663              		.loc 1 64 3 is_stmt 1 view .LVU188
  64:Core/Src/BNO055.c **** 	}
 664              		.loc 1 64 8 view .LVU189
 665 00ce FEE7     		b	.L31
 666              	.L39:
 667              		.align	2
 668              	.L38:
 669 00d0 00000000 		.word	.LANCHOR1
 670 00d4 00000000 		.word	.LANCHOR0
 671 00d8 00000240 		.word	1073872896
 672              	.LBE75:
 673              	.LBE77:
 674              		.cfi_endproc
 675              	.LFE136:
 677              		.section	.text.BNO055_Set_OP_Mode,"ax",%progbits
 678              		.align	1
 679              		.global	BNO055_Set_OP_Mode
 680              		.syntax unified
 681              		.thumb
 682              		.thumb_func
 684              	BNO055_Set_OP_Mode:
 685              	.LVL66:
 686              	.LFB137:
 165:Core/Src/BNO055.c **** 
 166:Core/Src/BNO055.c **** BNO055_ERROR BNO055_Set_OP_Mode(BNO055_OPERATION_MODE op){
 687              		.loc 1 166 58 view -0
 688              		.cfi_startproc
 689              		@ args = 0, pretend = 0, frame = 8
 690              		@ frame_needed = 0, uses_anonymous_args = 0
 691              		.loc 1 166 58 is_stmt 0 view .LVU191
 692 0000 10B5     		push	{r4, lr}
 693              		.cfi_def_cfa_offset 8
 694              		.cfi_offset 4, -8
 695              		.cfi_offset 14, -4
 696 0002 84B0     		sub	sp, sp, #16
 697              		.cfi_def_cfa_offset 24
 698 0004 0446     		mov	r4, r0
 167:Core/Src/BNO055.c **** 
 168:Core/Src/BNO055.c **** 	HAL_StatusTypeDef error;
 699              		.loc 1 168 2 is_stmt 1 view .LVU192
 169:Core/Src/BNO055.c **** 
 170:Core/Src/BNO055.c **** 	/* Make sure BNO055 is on Page 0 */
ARM GAS  C:\Users\baske\AppData\Local\Temp\ccVCqxIy.s 			page 19


 171:Core/Src/BNO055.c **** 	if(state.currentPage != BNO055_PAGE_0){
 700              		.loc 1 171 2 view .LVU193
 701              		.loc 1 171 10 is_stmt 0 view .LVU194
 702 0006 804B     		ldr	r3, .L64
 703 0008 5B78     		ldrb	r3, [r3, #1]	@ zero_extendqisi2
 704              		.loc 1 171 4 view .LVU195
 705 000a 8BB9     		cbnz	r3, .L61
 706              	.LVL67:
 707              	.L41:
 172:Core/Src/BNO055.c **** 		error = BNO055_Write(BNO055_PAGE_ID, BNO055_PAGE_0);
 173:Core/Src/BNO055.c **** 		BNO055_ERROR_HANDLE(error);
 174:Core/Src/BNO055.c **** 		state.currentPage = BNO055_PAGE_0;
 175:Core/Src/BNO055.c **** 		HAL_Delay(20);
 176:Core/Src/BNO055.c **** 	}
 177:Core/Src/BNO055.c **** 
 178:Core/Src/BNO055.c **** 	switch(op){
 708              		.loc 1 178 2 is_stmt 1 view .LVU196
 709 000c 631E     		subs	r3, r4, #1
 710 000e 0B2B     		cmp	r3, #11
 711 0010 00F2E480 		bhi	.L44
 712 0014 DFE813F0 		tbh	[pc, r3, lsl #1]
 713              	.L46:
 714 0018 2900     		.2byte	(.L56-.L46)/2
 715 001a 4300     		.2byte	(.L55-.L46)/2
 716 001c 5200     		.2byte	(.L54-.L46)/2
 717 001e 6200     		.2byte	(.L53-.L46)/2
 718 0020 7200     		.2byte	(.L52-.L46)/2
 719 0022 8200     		.2byte	(.L51-.L46)/2
 720 0024 E200     		.2byte	(.L44-.L46)/2
 721 0026 9200     		.2byte	(.L50-.L46)/2
 722 0028 A200     		.2byte	(.L49-.L46)/2
 723 002a B200     		.2byte	(.L48-.L46)/2
 724 002c C200     		.2byte	(.L47-.L46)/2
 725 002e D200     		.2byte	(.L45-.L46)/2
 726              	.LVL68:
 727              		.p2align 1
 728              	.L61:
 172:Core/Src/BNO055.c **** 		error = BNO055_Write(BNO055_PAGE_ID, BNO055_PAGE_0);
 729              		.loc 1 172 3 view .LVU197
 730              	.LBB108:
 731              	.LBI108:
  47:Core/Src/BNO055.c **** 
 732              		.loc 1 47 33 view .LVU198
 733              	.LBB109:
  49:Core/Src/BNO055.c **** 	uint8_t transmitBuf[2] = {reg, data};
 734              		.loc 1 49 2 view .LVU199
  50:Core/Src/BNO055.c **** 
 735              		.loc 1 50 2 view .LVU200
  50:Core/Src/BNO055.c **** 
 736              		.loc 1 50 10 is_stmt 0 view .LVU201
 737 0030 0723     		movs	r3, #7
 738 0032 8DF80C30 		strb	r3, [sp, #12]
 739 0036 0023     		movs	r3, #0
 740 0038 8DF80D30 		strb	r3, [sp, #13]
  52:Core/Src/BNO055.c **** 
 741              		.loc 1 52 2 is_stmt 1 view .LVU202
  52:Core/Src/BNO055.c **** 
ARM GAS  C:\Users\baske\AppData\Local\Temp\ccVCqxIy.s 			page 20


 742              		.loc 1 52 10 is_stmt 0 view .LVU203
 743 003c 6423     		movs	r3, #100
 744 003e 0093     		str	r3, [sp]
 745 0040 0223     		movs	r3, #2
 746 0042 03AA     		add	r2, sp, #12
 747 0044 5021     		movs	r1, #80
 748 0046 7148     		ldr	r0, .L64+4
 749              	.LVL69:
  52:Core/Src/BNO055.c **** 
 750              		.loc 1 52 10 view .LVU204
 751 0048 0068     		ldr	r0, [r0]
 752 004a FFF7FEFF 		bl	HAL_I2C_Master_Transmit
 753              	.LVL70:
  54:Core/Src/BNO055.c **** 
 754              		.loc 1 54 2 is_stmt 1 view .LVU205
  54:Core/Src/BNO055.c **** 
 755              		.loc 1 54 2 is_stmt 0 view .LVU206
 756              	.LBE109:
 757              	.LBE108:
 173:Core/Src/BNO055.c **** 		state.currentPage = BNO055_PAGE_0;
 758              		.loc 1 173 3 is_stmt 1 view .LVU207
 759              	.LBB110:
 760              	.LBI110:
  61:Core/Src/BNO055.c **** 	if(error != HAL_OK){
 761              		.loc 1 61 20 view .LVU208
 762              	.LBB111:
  62:Core/Src/BNO055.c **** 		HAL_GPIO_WritePin(LD2_GPIO_Port, LD2_Pin, GPIO_PIN_SET);
 763              		.loc 1 62 2 view .LVU209
  62:Core/Src/BNO055.c **** 		HAL_GPIO_WritePin(LD2_GPIO_Port, LD2_Pin, GPIO_PIN_SET);
 764              		.loc 1 62 4 is_stmt 0 view .LVU210
 765 004e 30B9     		cbnz	r0, .L62
 766              	.LVL71:
  62:Core/Src/BNO055.c **** 		HAL_GPIO_WritePin(LD2_GPIO_Port, LD2_Pin, GPIO_PIN_SET);
 767              		.loc 1 62 4 view .LVU211
 768              	.LBE111:
 769              	.LBE110:
 174:Core/Src/BNO055.c **** 		HAL_Delay(20);
 770              		.loc 1 174 3 is_stmt 1 view .LVU212
 174:Core/Src/BNO055.c **** 		HAL_Delay(20);
 771              		.loc 1 174 21 is_stmt 0 view .LVU213
 772 0050 6D4B     		ldr	r3, .L64
 773 0052 0022     		movs	r2, #0
 774 0054 5A70     		strb	r2, [r3, #1]
 175:Core/Src/BNO055.c **** 	}
 775              		.loc 1 175 3 is_stmt 1 view .LVU214
 776 0056 1420     		movs	r0, #20
 777              	.LVL72:
 175:Core/Src/BNO055.c **** 	}
 778              		.loc 1 175 3 is_stmt 0 view .LVU215
 779 0058 FFF7FEFF 		bl	HAL_Delay
 780              	.LVL73:
 781 005c D6E7     		b	.L41
 782              	.LVL74:
 783              	.L62:
 784              	.LBB113:
 785              	.LBB112:
  63:Core/Src/BNO055.c **** 		while(1);
ARM GAS  C:\Users\baske\AppData\Local\Temp\ccVCqxIy.s 			page 21


 786              		.loc 1 63 3 is_stmt 1 view .LVU216
 787 005e 0122     		movs	r2, #1
 788 0060 2021     		movs	r1, #32
 789 0062 6B48     		ldr	r0, .L64+8
 790              	.LVL75:
  63:Core/Src/BNO055.c **** 		while(1);
 791              		.loc 1 63 3 is_stmt 0 view .LVU217
 792 0064 FFF7FEFF 		bl	HAL_GPIO_WritePin
 793              	.LVL76:
 794              	.L43:
  64:Core/Src/BNO055.c **** 	}
 795              		.loc 1 64 3 is_stmt 1 view .LVU218
  64:Core/Src/BNO055.c **** 	}
 796              		.loc 1 64 8 view .LVU219
 797 0068 FEE7     		b	.L43
 798              	.L56:
  64:Core/Src/BNO055.c **** 	}
 799              		.loc 1 64 8 is_stmt 0 view .LVU220
 800              	.LBE112:
 801              	.LBE113:
 179:Core/Src/BNO055.c **** 		case ACC_ONLY:
 180:Core/Src/BNO055.c **** 			error = BNO055_Write(BNO055_OPR_MODE, OPR_MODE_ACCONLY);
 802              		.loc 1 180 4 is_stmt 1 view .LVU221
 803              	.LVL77:
 804              	.LBB114:
 805              	.LBI114:
  47:Core/Src/BNO055.c **** 
 806              		.loc 1 47 33 view .LVU222
 807              	.LBB115:
  49:Core/Src/BNO055.c **** 	uint8_t transmitBuf[2] = {reg, data};
 808              		.loc 1 49 2 view .LVU223
  50:Core/Src/BNO055.c **** 
 809              		.loc 1 50 2 view .LVU224
  50:Core/Src/BNO055.c **** 
 810              		.loc 1 50 10 is_stmt 0 view .LVU225
 811 006a 3D23     		movs	r3, #61
 812 006c 8DF80C30 		strb	r3, [sp, #12]
 813 0070 0123     		movs	r3, #1
 814 0072 8DF80D30 		strb	r3, [sp, #13]
  52:Core/Src/BNO055.c **** 
 815              		.loc 1 52 2 is_stmt 1 view .LVU226
  52:Core/Src/BNO055.c **** 
 816              		.loc 1 52 10 is_stmt 0 view .LVU227
 817 0076 6423     		movs	r3, #100
 818 0078 0093     		str	r3, [sp]
 819 007a 0223     		movs	r3, #2
 820 007c 03AA     		add	r2, sp, #12
 821 007e 5021     		movs	r1, #80
 822 0080 6248     		ldr	r0, .L64+4
 823 0082 0068     		ldr	r0, [r0]
 824 0084 FFF7FEFF 		bl	HAL_I2C_Master_Transmit
 825              	.LVL78:
  54:Core/Src/BNO055.c **** 
 826              		.loc 1 54 2 is_stmt 1 view .LVU228
  54:Core/Src/BNO055.c **** 
 827              		.loc 1 54 2 is_stmt 0 view .LVU229
 828              	.LBE115:
ARM GAS  C:\Users\baske\AppData\Local\Temp\ccVCqxIy.s 			page 22


 829              	.LBE114:
 181:Core/Src/BNO055.c **** 			break;
 830              		.loc 1 181 4 is_stmt 1 view .LVU230
 831              	.L57:
 182:Core/Src/BNO055.c **** 
 183:Core/Src/BNO055.c **** 		case MAG_ONLY:
 184:Core/Src/BNO055.c **** 			error = BNO055_Write(BNO055_OPR_MODE, OPR_MODE_MAGONLY);
 185:Core/Src/BNO055.c **** 			break;
 186:Core/Src/BNO055.c **** 
 187:Core/Src/BNO055.c **** 		case GYRO_ONLY:
 188:Core/Src/BNO055.c **** 			error = BNO055_Write(BNO055_OPR_MODE, OPR_MODE_GRYOONLY);
 189:Core/Src/BNO055.c **** 			break;
 190:Core/Src/BNO055.c **** 
 191:Core/Src/BNO055.c **** 		case ACC_MAG:
 192:Core/Src/BNO055.c **** 			error = BNO055_Write(BNO055_OPR_MODE, OPR_MODE_ACCMAG);
 193:Core/Src/BNO055.c **** 			break;
 194:Core/Src/BNO055.c **** 
 195:Core/Src/BNO055.c **** 		case ACC_GYRO:
 196:Core/Src/BNO055.c **** 			error = BNO055_Write(BNO055_OPR_MODE, OPR_MODE_ACCGYRO);
 197:Core/Src/BNO055.c **** 			break;
 198:Core/Src/BNO055.c **** 
 199:Core/Src/BNO055.c **** 		case MAG_GYRO:
 200:Core/Src/BNO055.c **** 			error = BNO055_Write(BNO055_OPR_MODE, OPR_MODE_MAGGRYO);
 201:Core/Src/BNO055.c **** 			break;
 202:Core/Src/BNO055.c **** 
 203:Core/Src/BNO055.c **** 		case IMU:
 204:Core/Src/BNO055.c **** 			error = BNO055_Write(BNO055_OPR_MODE, OPR_MODE_IMU);
 205:Core/Src/BNO055.c **** 			break;
 206:Core/Src/BNO055.c **** 
 207:Core/Src/BNO055.c **** 		case COMPASS:
 208:Core/Src/BNO055.c **** 			error = BNO055_Write(BNO055_OPR_MODE, OPR_MODE_COMPASS);
 209:Core/Src/BNO055.c **** 			break;
 210:Core/Src/BNO055.c **** 
 211:Core/Src/BNO055.c **** 		case M4G:
 212:Core/Src/BNO055.c **** 			error = BNO055_Write(BNO055_OPR_MODE, OPR_MODE_M4G);
 213:Core/Src/BNO055.c **** 			break;
 214:Core/Src/BNO055.c **** 
 215:Core/Src/BNO055.c **** 		case NDOF_FMC_OFF:
 216:Core/Src/BNO055.c **** 			error = BNO055_Write(BNO055_OPR_MODE, OPR_MODE_NDOF_FMC);
 217:Core/Src/BNO055.c **** 			break;
 218:Core/Src/BNO055.c **** 
 219:Core/Src/BNO055.c **** 		case NDOF:
 220:Core/Src/BNO055.c **** 			error = BNO055_Write(BNO055_OPR_MODE, OPR_MODE_NDOF);
 221:Core/Src/BNO055.c **** 			break;
 222:Core/Src/BNO055.c **** 
 223:Core/Src/BNO055.c **** 		default:
 224:Core/Src/BNO055.c **** 			error = BNO055_Write(BNO055_OPR_MODE, OPR_MODE_CONFIG);
 225:Core/Src/BNO055.c **** 			break;
 226:Core/Src/BNO055.c **** 	}
 227:Core/Src/BNO055.c **** 
 228:Core/Src/BNO055.c **** 	BNO055_ERROR_HANDLE(error);
 832              		.loc 1 228 2 view .LVU231
 833              	.LBB116:
 834              	.LBI116:
  61:Core/Src/BNO055.c **** 	if(error != HAL_OK){
 835              		.loc 1 61 20 view .LVU232
 836              	.LBB117:
ARM GAS  C:\Users\baske\AppData\Local\Temp\ccVCqxIy.s 			page 23


  62:Core/Src/BNO055.c **** 		HAL_GPIO_WritePin(LD2_GPIO_Port, LD2_Pin, GPIO_PIN_SET);
 837              		.loc 1 62 2 view .LVU233
  62:Core/Src/BNO055.c **** 		HAL_GPIO_WritePin(LD2_GPIO_Port, LD2_Pin, GPIO_PIN_SET);
 838              		.loc 1 62 4 is_stmt 0 view .LVU234
 839 0088 0028     		cmp	r0, #0
 840 008a 40F0B780 		bne	.L63
 841              	.LVL79:
  62:Core/Src/BNO055.c **** 		HAL_GPIO_WritePin(LD2_GPIO_Port, LD2_Pin, GPIO_PIN_SET);
 842              		.loc 1 62 4 view .LVU235
 843              	.LBE117:
 844              	.LBE116:
 229:Core/Src/BNO055.c **** 	state.currentMode = op;
 845              		.loc 1 229 2 is_stmt 1 view .LVU236
 846              		.loc 1 229 20 is_stmt 0 view .LVU237
 847 008e 5E4B     		ldr	r3, .L64
 848 0090 1C70     		strb	r4, [r3]
 230:Core/Src/BNO055.c **** 	HAL_Delay(10);
 849              		.loc 1 230 2 is_stmt 1 view .LVU238
 850 0092 0A20     		movs	r0, #10
 851              	.LVL80:
 852              		.loc 1 230 2 is_stmt 0 view .LVU239
 853 0094 FFF7FEFF 		bl	HAL_Delay
 854              	.LVL81:
 231:Core/Src/BNO055.c **** 	return BNO055_SUCCESS;
 855              		.loc 1 231 2 is_stmt 1 view .LVU240
 232:Core/Src/BNO055.c **** }
 856              		.loc 1 232 1 is_stmt 0 view .LVU241
 857 0098 0020     		movs	r0, #0
 858 009a 04B0     		add	sp, sp, #16
 859              		.cfi_remember_state
 860              		.cfi_def_cfa_offset 8
 861              		@ sp needed
 862 009c 10BD     		pop	{r4, pc}
 863              	.L55:
 864              		.cfi_restore_state
 184:Core/Src/BNO055.c **** 			break;
 865              		.loc 1 184 4 is_stmt 1 view .LVU242
 866              	.LVL82:
 867              	.LBB119:
 868              	.LBI119:
  47:Core/Src/BNO055.c **** 
 869              		.loc 1 47 33 view .LVU243
 870              	.LBB120:
  49:Core/Src/BNO055.c **** 	uint8_t transmitBuf[2] = {reg, data};
 871              		.loc 1 49 2 view .LVU244
  50:Core/Src/BNO055.c **** 
 872              		.loc 1 50 2 view .LVU245
  50:Core/Src/BNO055.c **** 
 873              		.loc 1 50 10 is_stmt 0 view .LVU246
 874 009e 3D23     		movs	r3, #61
 875 00a0 8DF80C30 		strb	r3, [sp, #12]
 876 00a4 0223     		movs	r3, #2
 877 00a6 8DF80D30 		strb	r3, [sp, #13]
  52:Core/Src/BNO055.c **** 
 878              		.loc 1 52 2 is_stmt 1 view .LVU247
  52:Core/Src/BNO055.c **** 
 879              		.loc 1 52 10 is_stmt 0 view .LVU248
ARM GAS  C:\Users\baske\AppData\Local\Temp\ccVCqxIy.s 			page 24


 880 00aa 6422     		movs	r2, #100
 881 00ac 0092     		str	r2, [sp]
 882 00ae 03AA     		add	r2, sp, #12
 883 00b0 5021     		movs	r1, #80
 884 00b2 5648     		ldr	r0, .L64+4
 885 00b4 0068     		ldr	r0, [r0]
 886 00b6 FFF7FEFF 		bl	HAL_I2C_Master_Transmit
 887              	.LVL83:
  54:Core/Src/BNO055.c **** 
 888              		.loc 1 54 2 is_stmt 1 view .LVU249
  54:Core/Src/BNO055.c **** 
 889              		.loc 1 54 2 is_stmt 0 view .LVU250
 890              	.LBE120:
 891              	.LBE119:
 185:Core/Src/BNO055.c **** 
 892              		.loc 1 185 4 is_stmt 1 view .LVU251
 893 00ba E5E7     		b	.L57
 894              	.LVL84:
 895              	.L54:
 188:Core/Src/BNO055.c **** 			break;
 896              		.loc 1 188 4 view .LVU252
 897              	.LBB121:
 898              	.LBI121:
  47:Core/Src/BNO055.c **** 
 899              		.loc 1 47 33 view .LVU253
 900              	.LBB122:
  49:Core/Src/BNO055.c **** 	uint8_t transmitBuf[2] = {reg, data};
 901              		.loc 1 49 2 view .LVU254
  50:Core/Src/BNO055.c **** 
 902              		.loc 1 50 2 view .LVU255
  50:Core/Src/BNO055.c **** 
 903              		.loc 1 50 10 is_stmt 0 view .LVU256
 904 00bc 3D23     		movs	r3, #61
 905 00be 8DF80C30 		strb	r3, [sp, #12]
 906 00c2 0323     		movs	r3, #3
 907 00c4 8DF80D30 		strb	r3, [sp, #13]
  52:Core/Src/BNO055.c **** 
 908              		.loc 1 52 2 is_stmt 1 view .LVU257
  52:Core/Src/BNO055.c **** 
 909              		.loc 1 52 10 is_stmt 0 view .LVU258
 910 00c8 6423     		movs	r3, #100
 911 00ca 0093     		str	r3, [sp]
 912 00cc 0223     		movs	r3, #2
 913 00ce 03AA     		add	r2, sp, #12
 914 00d0 5021     		movs	r1, #80
 915 00d2 4E48     		ldr	r0, .L64+4
 916 00d4 0068     		ldr	r0, [r0]
 917 00d6 FFF7FEFF 		bl	HAL_I2C_Master_Transmit
 918              	.LVL85:
  54:Core/Src/BNO055.c **** 
 919              		.loc 1 54 2 is_stmt 1 view .LVU259
  54:Core/Src/BNO055.c **** 
 920              		.loc 1 54 2 is_stmt 0 view .LVU260
 921              	.LBE122:
 922              	.LBE121:
 189:Core/Src/BNO055.c **** 
 923              		.loc 1 189 4 is_stmt 1 view .LVU261
ARM GAS  C:\Users\baske\AppData\Local\Temp\ccVCqxIy.s 			page 25


 924 00da D5E7     		b	.L57
 925              	.LVL86:
 926              	.L53:
 192:Core/Src/BNO055.c **** 			break;
 927              		.loc 1 192 4 view .LVU262
 928              	.LBB123:
 929              	.LBI123:
  47:Core/Src/BNO055.c **** 
 930              		.loc 1 47 33 view .LVU263
 931              	.LBB124:
  49:Core/Src/BNO055.c **** 	uint8_t transmitBuf[2] = {reg, data};
 932              		.loc 1 49 2 view .LVU264
  50:Core/Src/BNO055.c **** 
 933              		.loc 1 50 2 view .LVU265
  50:Core/Src/BNO055.c **** 
 934              		.loc 1 50 10 is_stmt 0 view .LVU266
 935 00dc 3D23     		movs	r3, #61
 936 00de 8DF80C30 		strb	r3, [sp, #12]
 937 00e2 0423     		movs	r3, #4
 938 00e4 8DF80D30 		strb	r3, [sp, #13]
  52:Core/Src/BNO055.c **** 
 939              		.loc 1 52 2 is_stmt 1 view .LVU267
  52:Core/Src/BNO055.c **** 
 940              		.loc 1 52 10 is_stmt 0 view .LVU268
 941 00e8 6423     		movs	r3, #100
 942 00ea 0093     		str	r3, [sp]
 943 00ec 0223     		movs	r3, #2
 944 00ee 03AA     		add	r2, sp, #12
 945 00f0 5021     		movs	r1, #80
 946 00f2 4648     		ldr	r0, .L64+4
 947 00f4 0068     		ldr	r0, [r0]
 948 00f6 FFF7FEFF 		bl	HAL_I2C_Master_Transmit
 949              	.LVL87:
  54:Core/Src/BNO055.c **** 
 950              		.loc 1 54 2 is_stmt 1 view .LVU269
  54:Core/Src/BNO055.c **** 
 951              		.loc 1 54 2 is_stmt 0 view .LVU270
 952              	.LBE124:
 953              	.LBE123:
 193:Core/Src/BNO055.c **** 
 954              		.loc 1 193 4 is_stmt 1 view .LVU271
 955 00fa C5E7     		b	.L57
 956              	.LVL88:
 957              	.L52:
 196:Core/Src/BNO055.c **** 			break;
 958              		.loc 1 196 4 view .LVU272
 959              	.LBB125:
 960              	.LBI125:
  47:Core/Src/BNO055.c **** 
 961              		.loc 1 47 33 view .LVU273
 962              	.LBB126:
  49:Core/Src/BNO055.c **** 	uint8_t transmitBuf[2] = {reg, data};
 963              		.loc 1 49 2 view .LVU274
  50:Core/Src/BNO055.c **** 
 964              		.loc 1 50 2 view .LVU275
  50:Core/Src/BNO055.c **** 
 965              		.loc 1 50 10 is_stmt 0 view .LVU276
ARM GAS  C:\Users\baske\AppData\Local\Temp\ccVCqxIy.s 			page 26


 966 00fc 3D23     		movs	r3, #61
 967 00fe 8DF80C30 		strb	r3, [sp, #12]
 968 0102 0523     		movs	r3, #5
 969 0104 8DF80D30 		strb	r3, [sp, #13]
  52:Core/Src/BNO055.c **** 
 970              		.loc 1 52 2 is_stmt 1 view .LVU277
  52:Core/Src/BNO055.c **** 
 971              		.loc 1 52 10 is_stmt 0 view .LVU278
 972 0108 6423     		movs	r3, #100
 973 010a 0093     		str	r3, [sp]
 974 010c 0223     		movs	r3, #2
 975 010e 03AA     		add	r2, sp, #12
 976 0110 5021     		movs	r1, #80
 977 0112 3E48     		ldr	r0, .L64+4
 978 0114 0068     		ldr	r0, [r0]
 979 0116 FFF7FEFF 		bl	HAL_I2C_Master_Transmit
 980              	.LVL89:
  54:Core/Src/BNO055.c **** 
 981              		.loc 1 54 2 is_stmt 1 view .LVU279
  54:Core/Src/BNO055.c **** 
 982              		.loc 1 54 2 is_stmt 0 view .LVU280
 983              	.LBE126:
 984              	.LBE125:
 197:Core/Src/BNO055.c **** 
 985              		.loc 1 197 4 is_stmt 1 view .LVU281
 986 011a B5E7     		b	.L57
 987              	.LVL90:
 988              	.L51:
 200:Core/Src/BNO055.c **** 			break;
 989              		.loc 1 200 4 view .LVU282
 990              	.LBB127:
 991              	.LBI127:
  47:Core/Src/BNO055.c **** 
 992              		.loc 1 47 33 view .LVU283
 993              	.LBB128:
  49:Core/Src/BNO055.c **** 	uint8_t transmitBuf[2] = {reg, data};
 994              		.loc 1 49 2 view .LVU284
  50:Core/Src/BNO055.c **** 
 995              		.loc 1 50 2 view .LVU285
  50:Core/Src/BNO055.c **** 
 996              		.loc 1 50 10 is_stmt 0 view .LVU286
 997 011c 3D23     		movs	r3, #61
 998 011e 8DF80C30 		strb	r3, [sp, #12]
 999 0122 0623     		movs	r3, #6
 1000 0124 8DF80D30 		strb	r3, [sp, #13]
  52:Core/Src/BNO055.c **** 
 1001              		.loc 1 52 2 is_stmt 1 view .LVU287
  52:Core/Src/BNO055.c **** 
 1002              		.loc 1 52 10 is_stmt 0 view .LVU288
 1003 0128 6423     		movs	r3, #100
 1004 012a 0093     		str	r3, [sp]
 1005 012c 0223     		movs	r3, #2
 1006 012e 03AA     		add	r2, sp, #12
 1007 0130 5021     		movs	r1, #80
 1008 0132 3648     		ldr	r0, .L64+4
 1009 0134 0068     		ldr	r0, [r0]
 1010 0136 FFF7FEFF 		bl	HAL_I2C_Master_Transmit
ARM GAS  C:\Users\baske\AppData\Local\Temp\ccVCqxIy.s 			page 27


 1011              	.LVL91:
  54:Core/Src/BNO055.c **** 
 1012              		.loc 1 54 2 is_stmt 1 view .LVU289
  54:Core/Src/BNO055.c **** 
 1013              		.loc 1 54 2 is_stmt 0 view .LVU290
 1014              	.LBE128:
 1015              	.LBE127:
 201:Core/Src/BNO055.c **** 
 1016              		.loc 1 201 4 is_stmt 1 view .LVU291
 1017 013a A5E7     		b	.L57
 1018              	.LVL92:
 1019              	.L50:
 204:Core/Src/BNO055.c **** 			break;
 1020              		.loc 1 204 4 view .LVU292
 1021              	.LBB129:
 1022              	.LBI129:
  47:Core/Src/BNO055.c **** 
 1023              		.loc 1 47 33 view .LVU293
 1024              	.LBB130:
  49:Core/Src/BNO055.c **** 	uint8_t transmitBuf[2] = {reg, data};
 1025              		.loc 1 49 2 view .LVU294
  50:Core/Src/BNO055.c **** 
 1026              		.loc 1 50 2 view .LVU295
  50:Core/Src/BNO055.c **** 
 1027              		.loc 1 50 10 is_stmt 0 view .LVU296
 1028 013c 3D23     		movs	r3, #61
 1029 013e 8DF80C30 		strb	r3, [sp, #12]
 1030 0142 0823     		movs	r3, #8
 1031 0144 8DF80D30 		strb	r3, [sp, #13]
  52:Core/Src/BNO055.c **** 
 1032              		.loc 1 52 2 is_stmt 1 view .LVU297
  52:Core/Src/BNO055.c **** 
 1033              		.loc 1 52 10 is_stmt 0 view .LVU298
 1034 0148 6423     		movs	r3, #100
 1035 014a 0093     		str	r3, [sp]
 1036 014c 0223     		movs	r3, #2
 1037 014e 03AA     		add	r2, sp, #12
 1038 0150 5021     		movs	r1, #80
 1039 0152 2E48     		ldr	r0, .L64+4
 1040 0154 0068     		ldr	r0, [r0]
 1041 0156 FFF7FEFF 		bl	HAL_I2C_Master_Transmit
 1042              	.LVL93:
  54:Core/Src/BNO055.c **** 
 1043              		.loc 1 54 2 is_stmt 1 view .LVU299
  54:Core/Src/BNO055.c **** 
 1044              		.loc 1 54 2 is_stmt 0 view .LVU300
 1045              	.LBE130:
 1046              	.LBE129:
 205:Core/Src/BNO055.c **** 
 1047              		.loc 1 205 4 is_stmt 1 view .LVU301
 1048 015a 95E7     		b	.L57
 1049              	.LVL94:
 1050              	.L49:
 208:Core/Src/BNO055.c **** 			break;
 1051              		.loc 1 208 4 view .LVU302
 1052              	.LBB131:
 1053              	.LBI131:
ARM GAS  C:\Users\baske\AppData\Local\Temp\ccVCqxIy.s 			page 28


  47:Core/Src/BNO055.c **** 
 1054              		.loc 1 47 33 view .LVU303
 1055              	.LBB132:
  49:Core/Src/BNO055.c **** 	uint8_t transmitBuf[2] = {reg, data};
 1056              		.loc 1 49 2 view .LVU304
  50:Core/Src/BNO055.c **** 
 1057              		.loc 1 50 2 view .LVU305
  50:Core/Src/BNO055.c **** 
 1058              		.loc 1 50 10 is_stmt 0 view .LVU306
 1059 015c 3D23     		movs	r3, #61
 1060 015e 8DF80C30 		strb	r3, [sp, #12]
 1061 0162 0923     		movs	r3, #9
 1062 0164 8DF80D30 		strb	r3, [sp, #13]
  52:Core/Src/BNO055.c **** 
 1063              		.loc 1 52 2 is_stmt 1 view .LVU307
  52:Core/Src/BNO055.c **** 
 1064              		.loc 1 52 10 is_stmt 0 view .LVU308
 1065 0168 6423     		movs	r3, #100
 1066 016a 0093     		str	r3, [sp]
 1067 016c 0223     		movs	r3, #2
 1068 016e 03AA     		add	r2, sp, #12
 1069 0170 5021     		movs	r1, #80
 1070 0172 2648     		ldr	r0, .L64+4
 1071 0174 0068     		ldr	r0, [r0]
 1072 0176 FFF7FEFF 		bl	HAL_I2C_Master_Transmit
 1073              	.LVL95:
  54:Core/Src/BNO055.c **** 
 1074              		.loc 1 54 2 is_stmt 1 view .LVU309
  54:Core/Src/BNO055.c **** 
 1075              		.loc 1 54 2 is_stmt 0 view .LVU310
 1076              	.LBE132:
 1077              	.LBE131:
 209:Core/Src/BNO055.c **** 
 1078              		.loc 1 209 4 is_stmt 1 view .LVU311
 1079 017a 85E7     		b	.L57
 1080              	.LVL96:
 1081              	.L48:
 212:Core/Src/BNO055.c **** 			break;
 1082              		.loc 1 212 4 view .LVU312
 1083              	.LBB133:
 1084              	.LBI133:
  47:Core/Src/BNO055.c **** 
 1085              		.loc 1 47 33 view .LVU313
 1086              	.LBB134:
  49:Core/Src/BNO055.c **** 	uint8_t transmitBuf[2] = {reg, data};
 1087              		.loc 1 49 2 view .LVU314
  50:Core/Src/BNO055.c **** 
 1088              		.loc 1 50 2 view .LVU315
  50:Core/Src/BNO055.c **** 
 1089              		.loc 1 50 10 is_stmt 0 view .LVU316
 1090 017c 3D23     		movs	r3, #61
 1091 017e 8DF80C30 		strb	r3, [sp, #12]
 1092 0182 0A23     		movs	r3, #10
 1093 0184 8DF80D30 		strb	r3, [sp, #13]
  52:Core/Src/BNO055.c **** 
 1094              		.loc 1 52 2 is_stmt 1 view .LVU317
  52:Core/Src/BNO055.c **** 
ARM GAS  C:\Users\baske\AppData\Local\Temp\ccVCqxIy.s 			page 29


 1095              		.loc 1 52 10 is_stmt 0 view .LVU318
 1096 0188 6423     		movs	r3, #100
 1097 018a 0093     		str	r3, [sp]
 1098 018c 0223     		movs	r3, #2
 1099 018e 03AA     		add	r2, sp, #12
 1100 0190 5021     		movs	r1, #80
 1101 0192 1E48     		ldr	r0, .L64+4
 1102 0194 0068     		ldr	r0, [r0]
 1103 0196 FFF7FEFF 		bl	HAL_I2C_Master_Transmit
 1104              	.LVL97:
  54:Core/Src/BNO055.c **** 
 1105              		.loc 1 54 2 is_stmt 1 view .LVU319
  54:Core/Src/BNO055.c **** 
 1106              		.loc 1 54 2 is_stmt 0 view .LVU320
 1107              	.LBE134:
 1108              	.LBE133:
 213:Core/Src/BNO055.c **** 
 1109              		.loc 1 213 4 is_stmt 1 view .LVU321
 1110 019a 75E7     		b	.L57
 1111              	.LVL98:
 1112              	.L47:
 216:Core/Src/BNO055.c **** 			break;
 1113              		.loc 1 216 4 view .LVU322
 1114              	.LBB135:
 1115              	.LBI135:
  47:Core/Src/BNO055.c **** 
 1116              		.loc 1 47 33 view .LVU323
 1117              	.LBB136:
  49:Core/Src/BNO055.c **** 	uint8_t transmitBuf[2] = {reg, data};
 1118              		.loc 1 49 2 view .LVU324
  50:Core/Src/BNO055.c **** 
 1119              		.loc 1 50 2 view .LVU325
  50:Core/Src/BNO055.c **** 
 1120              		.loc 1 50 10 is_stmt 0 view .LVU326
 1121 019c 3D23     		movs	r3, #61
 1122 019e 8DF80C30 		strb	r3, [sp, #12]
 1123 01a2 0B23     		movs	r3, #11
 1124 01a4 8DF80D30 		strb	r3, [sp, #13]
  52:Core/Src/BNO055.c **** 
 1125              		.loc 1 52 2 is_stmt 1 view .LVU327
  52:Core/Src/BNO055.c **** 
 1126              		.loc 1 52 10 is_stmt 0 view .LVU328
 1127 01a8 6423     		movs	r3, #100
 1128 01aa 0093     		str	r3, [sp]
 1129 01ac 0223     		movs	r3, #2
 1130 01ae 03AA     		add	r2, sp, #12
 1131 01b0 5021     		movs	r1, #80
 1132 01b2 1648     		ldr	r0, .L64+4
 1133 01b4 0068     		ldr	r0, [r0]
 1134 01b6 FFF7FEFF 		bl	HAL_I2C_Master_Transmit
 1135              	.LVL99:
  54:Core/Src/BNO055.c **** 
 1136              		.loc 1 54 2 is_stmt 1 view .LVU329
  54:Core/Src/BNO055.c **** 
 1137              		.loc 1 54 2 is_stmt 0 view .LVU330
 1138              	.LBE136:
 1139              	.LBE135:
ARM GAS  C:\Users\baske\AppData\Local\Temp\ccVCqxIy.s 			page 30


 217:Core/Src/BNO055.c **** 
 1140              		.loc 1 217 4 is_stmt 1 view .LVU331
 1141 01ba 65E7     		b	.L57
 1142              	.LVL100:
 1143              	.L45:
 220:Core/Src/BNO055.c **** 			break;
 1144              		.loc 1 220 4 view .LVU332
 1145              	.LBB137:
 1146              	.LBI137:
  47:Core/Src/BNO055.c **** 
 1147              		.loc 1 47 33 view .LVU333
 1148              	.LBB138:
  49:Core/Src/BNO055.c **** 	uint8_t transmitBuf[2] = {reg, data};
 1149              		.loc 1 49 2 view .LVU334
  50:Core/Src/BNO055.c **** 
 1150              		.loc 1 50 2 view .LVU335
  50:Core/Src/BNO055.c **** 
 1151              		.loc 1 50 10 is_stmt 0 view .LVU336
 1152 01bc 3D23     		movs	r3, #61
 1153 01be 8DF80C30 		strb	r3, [sp, #12]
 1154 01c2 0C23     		movs	r3, #12
 1155 01c4 8DF80D30 		strb	r3, [sp, #13]
  52:Core/Src/BNO055.c **** 
 1156              		.loc 1 52 2 is_stmt 1 view .LVU337
  52:Core/Src/BNO055.c **** 
 1157              		.loc 1 52 10 is_stmt 0 view .LVU338
 1158 01c8 6423     		movs	r3, #100
 1159 01ca 0093     		str	r3, [sp]
 1160 01cc 0223     		movs	r3, #2
 1161 01ce 03AA     		add	r2, sp, #12
 1162 01d0 5021     		movs	r1, #80
 1163 01d2 0E48     		ldr	r0, .L64+4
 1164 01d4 0068     		ldr	r0, [r0]
 1165 01d6 FFF7FEFF 		bl	HAL_I2C_Master_Transmit
 1166              	.LVL101:
  54:Core/Src/BNO055.c **** 
 1167              		.loc 1 54 2 is_stmt 1 view .LVU339
  54:Core/Src/BNO055.c **** 
 1168              		.loc 1 54 2 is_stmt 0 view .LVU340
 1169              	.LBE138:
 1170              	.LBE137:
 221:Core/Src/BNO055.c **** 
 1171              		.loc 1 221 4 is_stmt 1 view .LVU341
 1172 01da 55E7     		b	.L57
 1173              	.LVL102:
 1174              	.L44:
 224:Core/Src/BNO055.c **** 			break;
 1175              		.loc 1 224 4 view .LVU342
 1176              	.LBB139:
 1177              	.LBI139:
  47:Core/Src/BNO055.c **** 
 1178              		.loc 1 47 33 view .LVU343
 1179              	.LBB140:
  49:Core/Src/BNO055.c **** 	uint8_t transmitBuf[2] = {reg, data};
 1180              		.loc 1 49 2 view .LVU344
  50:Core/Src/BNO055.c **** 
 1181              		.loc 1 50 2 view .LVU345
ARM GAS  C:\Users\baske\AppData\Local\Temp\ccVCqxIy.s 			page 31


  50:Core/Src/BNO055.c **** 
 1182              		.loc 1 50 10 is_stmt 0 view .LVU346
 1183 01dc 3D23     		movs	r3, #61
 1184 01de 8DF80C30 		strb	r3, [sp, #12]
 1185 01e2 0023     		movs	r3, #0
 1186 01e4 8DF80D30 		strb	r3, [sp, #13]
  52:Core/Src/BNO055.c **** 
 1187              		.loc 1 52 2 is_stmt 1 view .LVU347
  52:Core/Src/BNO055.c **** 
 1188              		.loc 1 52 10 is_stmt 0 view .LVU348
 1189 01e8 6423     		movs	r3, #100
 1190 01ea 0093     		str	r3, [sp]
 1191 01ec 0223     		movs	r3, #2
 1192 01ee 03AA     		add	r2, sp, #12
 1193 01f0 5021     		movs	r1, #80
 1194 01f2 0648     		ldr	r0, .L64+4
 1195 01f4 0068     		ldr	r0, [r0]
 1196 01f6 FFF7FEFF 		bl	HAL_I2C_Master_Transmit
 1197              	.LVL103:
  54:Core/Src/BNO055.c **** 
 1198              		.loc 1 54 2 is_stmt 1 view .LVU349
  54:Core/Src/BNO055.c **** 
 1199              		.loc 1 54 2 is_stmt 0 view .LVU350
 1200              	.LBE140:
 1201              	.LBE139:
 225:Core/Src/BNO055.c **** 	}
 1202              		.loc 1 225 4 is_stmt 1 view .LVU351
 1203 01fa 45E7     		b	.L57
 1204              	.LVL104:
 1205              	.L63:
 1206              	.LBB141:
 1207              	.LBB118:
  63:Core/Src/BNO055.c **** 		while(1);
 1208              		.loc 1 63 3 view .LVU352
 1209 01fc 0122     		movs	r2, #1
 1210 01fe 2021     		movs	r1, #32
 1211 0200 0348     		ldr	r0, .L64+8
 1212              	.LVL105:
  63:Core/Src/BNO055.c **** 		while(1);
 1213              		.loc 1 63 3 is_stmt 0 view .LVU353
 1214 0202 FFF7FEFF 		bl	HAL_GPIO_WritePin
 1215              	.LVL106:
 1216              	.L59:
  64:Core/Src/BNO055.c **** 	}
 1217              		.loc 1 64 3 is_stmt 1 view .LVU354
  64:Core/Src/BNO055.c **** 	}
 1218              		.loc 1 64 8 view .LVU355
 1219 0206 FEE7     		b	.L59
 1220              	.L65:
 1221              		.align	2
 1222              	.L64:
 1223 0208 00000000 		.word	.LANCHOR1
 1224 020c 00000000 		.word	.LANCHOR0
 1225 0210 00000240 		.word	1073872896
 1226              	.LBE118:
 1227              	.LBE141:
 1228              		.cfi_endproc
ARM GAS  C:\Users\baske\AppData\Local\Temp\ccVCqxIy.s 			page 32


 1229              	.LFE137:
 1231              		.section	.text.BNO055_Set_Axis,"ax",%progbits
 1232              		.align	1
 1233              		.global	BNO055_Set_Axis
 1234              		.syntax unified
 1235              		.thumb
 1236              		.thumb_func
 1238              	BNO055_Set_Axis:
 1239              	.LVL107:
 1240              	.LFB138:
 233:Core/Src/BNO055.c **** 
 234:Core/Src/BNO055.c **** BNO055_ERROR BNO055_Set_Axis(const BNO055_AXIS_CONFIG_t* axesConfig){
 1241              		.loc 1 234 69 view -0
 1242              		.cfi_startproc
 1243              		@ args = 0, pretend = 0, frame = 8
 1244              		@ frame_needed = 0, uses_anonymous_args = 0
 1245              		.loc 1 234 69 is_stmt 0 view .LVU357
 1246 0000 10B5     		push	{r4, lr}
 1247              		.cfi_def_cfa_offset 8
 1248              		.cfi_offset 4, -8
 1249              		.cfi_offset 14, -4
 1250 0002 84B0     		sub	sp, sp, #16
 1251              		.cfi_def_cfa_offset 24
 1252 0004 0446     		mov	r4, r0
 235:Core/Src/BNO055.c **** 	
 236:Core/Src/BNO055.c **** 	HAL_StatusTypeDef error; 
 1253              		.loc 1 236 2 is_stmt 1 view .LVU358
 237:Core/Src/BNO055.c **** 
 238:Core/Src/BNO055.c **** 	/* Makes sure BNO055 is in CONFIG mode and Page 0 */
 239:Core/Src/BNO055.c **** 	BNO055_STATUS_CHECK_AND_SET(&state, CONFIG, BNO055_PAGE_0);
 1254              		.loc 1 239 2 view .LVU359
 1255              	.LVL108:
 1256              	.LBB156:
 1257              	.LBI156:
  73:Core/Src/BNO055.c **** 
 1258              		.loc 1 73 20 view .LVU360
 1259              	.LBB157:
  75:Core/Src/BNO055.c **** 
 1260              		.loc 1 75 2 view .LVU361
  78:Core/Src/BNO055.c **** 		error = BNO055_Write(BNO055_OPR_MODE, newMode);
 1261              		.loc 1 78 2 view .LVU362
  78:Core/Src/BNO055.c **** 		error = BNO055_Write(BNO055_OPR_MODE, newMode);
 1262              		.loc 1 78 14 is_stmt 0 view .LVU363
 1263 0006 334B     		ldr	r3, .L81
 1264 0008 1B78     		ldrb	r3, [r3]	@ zero_extendqisi2
  78:Core/Src/BNO055.c **** 		error = BNO055_Write(BNO055_OPR_MODE, newMode);
 1265              		.loc 1 78 4 view .LVU364
 1266 000a 13BB     		cbnz	r3, .L76
 1267              	.LVL109:
 1268              	.L67:
  86:Core/Src/BNO055.c **** 		error = BNO055_Write(BNO055_PAGE_ID, newPage);
 1269              		.loc 1 86 2 is_stmt 1 view .LVU365
  86:Core/Src/BNO055.c **** 		error = BNO055_Write(BNO055_PAGE_ID, newPage);
 1270              		.loc 1 86 14 is_stmt 0 view .LVU366
 1271 000c 314B     		ldr	r3, .L81
 1272 000e 5B78     		ldrb	r3, [r3, #1]	@ zero_extendqisi2
  86:Core/Src/BNO055.c **** 		error = BNO055_Write(BNO055_PAGE_ID, newPage);
ARM GAS  C:\Users\baske\AppData\Local\Temp\ccVCqxIy.s 			page 33


 1273              		.loc 1 86 4 view .LVU367
 1274 0010 002B     		cmp	r3, #0
 1275 0012 3BD1     		bne	.L77
 1276              	.L70:
 1277              	.LVL110:
  86:Core/Src/BNO055.c **** 		error = BNO055_Write(BNO055_PAGE_ID, newPage);
 1278              		.loc 1 86 4 view .LVU368
 1279              	.LBE157:
 1280              	.LBE156:
 240:Core/Src/BNO055.c **** 
 241:Core/Src/BNO055.c **** 	/* Configure Axis based on Axis Config Struct */
 242:Core/Src/BNO055.c **** 	uint8_t temp = (axesConfig->x << BNO055_X_AXIS_OFFSET) |
 1281              		.loc 1 242 2 is_stmt 1 view .LVU369
 1282              		.loc 1 242 28 is_stmt 0 view .LVU370
 1283 0014 94F90030 		ldrsb	r3, [r4]
 243:Core/Src/BNO055.c **** 				   (axesConfig->y << BNO055_Y_AXIS_OFFSET) |
 1284              		.loc 1 243 19 view .LVU371
 1285 0018 6278     		ldrb	r2, [r4, #1]	@ zero_extendqisi2
 242:Core/Src/BNO055.c **** 				   (axesConfig->y << BNO055_Y_AXIS_OFFSET) |
 1286              		.loc 1 242 57 view .LVU372
 1287 001a 43EA8203 		orr	r3, r3, r2, lsl #2
 1288 001e 5BB2     		sxtb	r3, r3
 244:Core/Src/BNO055.c **** 				   (axesConfig->z << BNO055_Z_AXIS_OFFSET);
 1289              		.loc 1 244 19 view .LVU373
 1290 0020 A278     		ldrb	r2, [r4, #2]	@ zero_extendqisi2
 243:Core/Src/BNO055.c **** 				   (axesConfig->y << BNO055_Y_AXIS_OFFSET) |
 1291              		.loc 1 243 48 view .LVU374
 1292 0022 43EA0213 		orr	r3, r3, r2, lsl #4
 1293              	.LVL111:
 245:Core/Src/BNO055.c **** 
 246:Core/Src/BNO055.c **** 	error = BNO055_Write(BNO055_AXIS_MAP_CONFIG, temp);
 1294              		.loc 1 246 2 is_stmt 1 view .LVU375
 1295              	.LBB171:
 1296              	.LBI171:
  47:Core/Src/BNO055.c **** 
 1297              		.loc 1 47 33 view .LVU376
 1298              	.LBB172:
  49:Core/Src/BNO055.c **** 	uint8_t transmitBuf[2] = {reg, data};
 1299              		.loc 1 49 2 view .LVU377
  50:Core/Src/BNO055.c **** 
 1300              		.loc 1 50 2 view .LVU378
  50:Core/Src/BNO055.c **** 
 1301              		.loc 1 50 10 is_stmt 0 view .LVU379
 1302 0026 4122     		movs	r2, #65
 1303 0028 8DF80C20 		strb	r2, [sp, #12]
 1304 002c 8DF80D30 		strb	r3, [sp, #13]
  52:Core/Src/BNO055.c **** 
 1305              		.loc 1 52 2 is_stmt 1 view .LVU380
  52:Core/Src/BNO055.c **** 
 1306              		.loc 1 52 10 is_stmt 0 view .LVU381
 1307 0030 6423     		movs	r3, #100
 1308              	.LVL112:
  52:Core/Src/BNO055.c **** 
 1309              		.loc 1 52 10 view .LVU382
 1310 0032 0093     		str	r3, [sp]
 1311 0034 0223     		movs	r3, #2
 1312 0036 03AA     		add	r2, sp, #12
ARM GAS  C:\Users\baske\AppData\Local\Temp\ccVCqxIy.s 			page 34


 1313 0038 5021     		movs	r1, #80
 1314 003a 2748     		ldr	r0, .L81+4
 1315 003c 0068     		ldr	r0, [r0]
 1316 003e FFF7FEFF 		bl	HAL_I2C_Master_Transmit
 1317              	.LVL113:
  54:Core/Src/BNO055.c **** 
 1318              		.loc 1 54 2 is_stmt 1 view .LVU383
  54:Core/Src/BNO055.c **** 
 1319              		.loc 1 54 2 is_stmt 0 view .LVU384
 1320              	.LBE172:
 1321              	.LBE171:
 247:Core/Src/BNO055.c **** 	BNO055_ERROR_HANDLE(error);
 1322              		.loc 1 247 2 is_stmt 1 view .LVU385
 1323              	.LBB173:
 1324              	.LBI173:
  61:Core/Src/BNO055.c **** 	if(error != HAL_OK){
 1325              		.loc 1 61 20 view .LVU386
 1326              	.LBB174:
  62:Core/Src/BNO055.c **** 		HAL_GPIO_WritePin(LD2_GPIO_Port, LD2_Pin, GPIO_PIN_SET);
 1327              		.loc 1 62 2 view .LVU387
  62:Core/Src/BNO055.c **** 		HAL_GPIO_WritePin(LD2_GPIO_Port, LD2_Pin, GPIO_PIN_SET);
 1328              		.loc 1 62 4 is_stmt 0 view .LVU388
 1329 0042 0028     		cmp	r0, #0
 1330 0044 3FD1     		bne	.L78
 1331              	.LVL114:
  62:Core/Src/BNO055.c **** 		HAL_GPIO_WritePin(LD2_GPIO_Port, LD2_Pin, GPIO_PIN_SET);
 1332              		.loc 1 62 4 view .LVU389
 1333              	.LBE174:
 1334              	.LBE173:
 248:Core/Src/BNO055.c **** 	HAL_Delay(10);
 1335              		.loc 1 248 2 is_stmt 1 view .LVU390
 1336 0046 0A20     		movs	r0, #10
 1337              	.LVL115:
 1338              		.loc 1 248 2 is_stmt 0 view .LVU391
 1339 0048 FFF7FEFF 		bl	HAL_Delay
 1340              	.LVL116:
 249:Core/Src/BNO055.c **** 
 250:Core/Src/BNO055.c **** 	return BNO055_SUCCESS;
 1341              		.loc 1 250 2 is_stmt 1 view .LVU392
 251:Core/Src/BNO055.c **** }
 1342              		.loc 1 251 1 is_stmt 0 view .LVU393
 1343 004c 0020     		movs	r0, #0
 1344 004e 04B0     		add	sp, sp, #16
 1345              		.cfi_remember_state
 1346              		.cfi_def_cfa_offset 8
 1347              		@ sp needed
 1348 0050 10BD     		pop	{r4, pc}
 1349              	.LVL117:
 1350              	.L76:
 1351              		.cfi_restore_state
 1352              	.LBB176:
 1353              	.LBB170:
  79:Core/Src/BNO055.c **** 		BNO055_ERROR_HANDLE(error);
 1354              		.loc 1 79 3 is_stmt 1 view .LVU394
 1355              	.LBB158:
 1356              	.LBI158:
  47:Core/Src/BNO055.c **** 
ARM GAS  C:\Users\baske\AppData\Local\Temp\ccVCqxIy.s 			page 35


 1357              		.loc 1 47 33 view .LVU395
 1358              	.LBB159:
  49:Core/Src/BNO055.c **** 	uint8_t transmitBuf[2] = {reg, data};
 1359              		.loc 1 49 2 view .LVU396
  50:Core/Src/BNO055.c **** 
 1360              		.loc 1 50 2 view .LVU397
  50:Core/Src/BNO055.c **** 
 1361              		.loc 1 50 10 is_stmt 0 view .LVU398
 1362 0052 3D23     		movs	r3, #61
 1363 0054 8DF80C30 		strb	r3, [sp, #12]
 1364 0058 0023     		movs	r3, #0
 1365 005a 8DF80D30 		strb	r3, [sp, #13]
  52:Core/Src/BNO055.c **** 
 1366              		.loc 1 52 2 is_stmt 1 view .LVU399
  52:Core/Src/BNO055.c **** 
 1367              		.loc 1 52 10 is_stmt 0 view .LVU400
 1368 005e 6423     		movs	r3, #100
 1369 0060 0093     		str	r3, [sp]
 1370 0062 0223     		movs	r3, #2
 1371 0064 03AA     		add	r2, sp, #12
 1372 0066 5021     		movs	r1, #80
 1373 0068 1B48     		ldr	r0, .L81+4
 1374              	.LVL118:
  52:Core/Src/BNO055.c **** 
 1375              		.loc 1 52 10 view .LVU401
 1376 006a 0068     		ldr	r0, [r0]
 1377 006c FFF7FEFF 		bl	HAL_I2C_Master_Transmit
 1378              	.LVL119:
  54:Core/Src/BNO055.c **** 
 1379              		.loc 1 54 2 is_stmt 1 view .LVU402
  54:Core/Src/BNO055.c **** 
 1380              		.loc 1 54 2 is_stmt 0 view .LVU403
 1381              	.LBE159:
 1382              	.LBE158:
  80:Core/Src/BNO055.c **** 		currState->currentMode = newMode;
 1383              		.loc 1 80 3 is_stmt 1 view .LVU404
 1384              	.LBB160:
 1385              	.LBI160:
  61:Core/Src/BNO055.c **** 	if(error != HAL_OK){
 1386              		.loc 1 61 20 view .LVU405
 1387              	.LBB161:
  62:Core/Src/BNO055.c **** 		HAL_GPIO_WritePin(LD2_GPIO_Port, LD2_Pin, GPIO_PIN_SET);
 1388              		.loc 1 62 2 view .LVU406
  62:Core/Src/BNO055.c **** 		HAL_GPIO_WritePin(LD2_GPIO_Port, LD2_Pin, GPIO_PIN_SET);
 1389              		.loc 1 62 4 is_stmt 0 view .LVU407
 1390 0070 30B9     		cbnz	r0, .L79
 1391              	.LVL120:
  62:Core/Src/BNO055.c **** 		HAL_GPIO_WritePin(LD2_GPIO_Port, LD2_Pin, GPIO_PIN_SET);
 1392              		.loc 1 62 4 view .LVU408
 1393              	.LBE161:
 1394              	.LBE160:
  81:Core/Src/BNO055.c **** 		HAL_Delay(20);
 1395              		.loc 1 81 3 is_stmt 1 view .LVU409
  81:Core/Src/BNO055.c **** 		HAL_Delay(20);
 1396              		.loc 1 81 26 is_stmt 0 view .LVU410
 1397 0072 184B     		ldr	r3, .L81
 1398 0074 0022     		movs	r2, #0
ARM GAS  C:\Users\baske\AppData\Local\Temp\ccVCqxIy.s 			page 36


 1399 0076 1A70     		strb	r2, [r3]
  82:Core/Src/BNO055.c **** 	}
 1400              		.loc 1 82 3 is_stmt 1 view .LVU411
 1401 0078 1420     		movs	r0, #20
 1402              	.LVL121:
  82:Core/Src/BNO055.c **** 	}
 1403              		.loc 1 82 3 is_stmt 0 view .LVU412
 1404 007a FFF7FEFF 		bl	HAL_Delay
 1405              	.LVL122:
 1406 007e C5E7     		b	.L67
 1407              	.LVL123:
 1408              	.L79:
 1409              	.LBB163:
 1410              	.LBB162:
  63:Core/Src/BNO055.c **** 		while(1);
 1411              		.loc 1 63 3 is_stmt 1 view .LVU413
 1412 0080 0122     		movs	r2, #1
 1413 0082 2021     		movs	r1, #32
 1414 0084 1548     		ldr	r0, .L81+8
 1415              	.LVL124:
  63:Core/Src/BNO055.c **** 		while(1);
 1416              		.loc 1 63 3 is_stmt 0 view .LVU414
 1417 0086 FFF7FEFF 		bl	HAL_GPIO_WritePin
 1418              	.LVL125:
 1419              	.L69:
  64:Core/Src/BNO055.c **** 	}
 1420              		.loc 1 64 3 is_stmt 1 view .LVU415
  64:Core/Src/BNO055.c **** 	}
 1421              		.loc 1 64 8 view .LVU416
 1422 008a FEE7     		b	.L69
 1423              	.L77:
  64:Core/Src/BNO055.c **** 	}
 1424              		.loc 1 64 8 is_stmt 0 view .LVU417
 1425              	.LBE162:
 1426              	.LBE163:
  87:Core/Src/BNO055.c **** 		BNO055_ERROR_HANDLE(error);
 1427              		.loc 1 87 3 is_stmt 1 view .LVU418
 1428              	.LVL126:
 1429              	.LBB164:
 1430              	.LBI164:
  47:Core/Src/BNO055.c **** 
 1431              		.loc 1 47 33 view .LVU419
 1432              	.LBB165:
  49:Core/Src/BNO055.c **** 	uint8_t transmitBuf[2] = {reg, data};
 1433              		.loc 1 49 2 view .LVU420
  50:Core/Src/BNO055.c **** 
 1434              		.loc 1 50 2 view .LVU421
  50:Core/Src/BNO055.c **** 
 1435              		.loc 1 50 10 is_stmt 0 view .LVU422
 1436 008c 0723     		movs	r3, #7
 1437 008e 8DF80C30 		strb	r3, [sp, #12]
 1438 0092 0023     		movs	r3, #0
 1439 0094 8DF80D30 		strb	r3, [sp, #13]
  52:Core/Src/BNO055.c **** 
 1440              		.loc 1 52 2 is_stmt 1 view .LVU423
  52:Core/Src/BNO055.c **** 
 1441              		.loc 1 52 10 is_stmt 0 view .LVU424
ARM GAS  C:\Users\baske\AppData\Local\Temp\ccVCqxIy.s 			page 37


 1442 0098 6423     		movs	r3, #100
 1443 009a 0093     		str	r3, [sp]
 1444 009c 0223     		movs	r3, #2
 1445 009e 03AA     		add	r2, sp, #12
 1446 00a0 5021     		movs	r1, #80
 1447 00a2 0D48     		ldr	r0, .L81+4
 1448 00a4 0068     		ldr	r0, [r0]
 1449 00a6 FFF7FEFF 		bl	HAL_I2C_Master_Transmit
 1450              	.LVL127:
  54:Core/Src/BNO055.c **** 
 1451              		.loc 1 54 2 is_stmt 1 view .LVU425
  54:Core/Src/BNO055.c **** 
 1452              		.loc 1 54 2 is_stmt 0 view .LVU426
 1453              	.LBE165:
 1454              	.LBE164:
  88:Core/Src/BNO055.c **** 		currState->currentPage = newPage;
 1455              		.loc 1 88 3 is_stmt 1 view .LVU427
 1456              	.LBB166:
 1457              	.LBI166:
  61:Core/Src/BNO055.c **** 	if(error != HAL_OK){
 1458              		.loc 1 61 20 view .LVU428
 1459              	.LBB167:
  62:Core/Src/BNO055.c **** 		HAL_GPIO_WritePin(LD2_GPIO_Port, LD2_Pin, GPIO_PIN_SET);
 1460              		.loc 1 62 2 view .LVU429
  62:Core/Src/BNO055.c **** 		HAL_GPIO_WritePin(LD2_GPIO_Port, LD2_Pin, GPIO_PIN_SET);
 1461              		.loc 1 62 4 is_stmt 0 view .LVU430
 1462 00aa 30B9     		cbnz	r0, .L80
 1463              	.LVL128:
  62:Core/Src/BNO055.c **** 		HAL_GPIO_WritePin(LD2_GPIO_Port, LD2_Pin, GPIO_PIN_SET);
 1464              		.loc 1 62 4 view .LVU431
 1465              	.LBE167:
 1466              	.LBE166:
  89:Core/Src/BNO055.c **** 		HAL_Delay(20);
 1467              		.loc 1 89 3 is_stmt 1 view .LVU432
  89:Core/Src/BNO055.c **** 		HAL_Delay(20);
 1468              		.loc 1 89 26 is_stmt 0 view .LVU433
 1469 00ac 094B     		ldr	r3, .L81
 1470 00ae 0022     		movs	r2, #0
 1471 00b0 5A70     		strb	r2, [r3, #1]
  90:Core/Src/BNO055.c **** 	}
 1472              		.loc 1 90 3 is_stmt 1 view .LVU434
 1473 00b2 1420     		movs	r0, #20
 1474              	.LVL129:
  90:Core/Src/BNO055.c **** 	}
 1475              		.loc 1 90 3 is_stmt 0 view .LVU435
 1476 00b4 FFF7FEFF 		bl	HAL_Delay
 1477              	.LVL130:
 1478 00b8 ACE7     		b	.L70
 1479              	.LVL131:
 1480              	.L80:
 1481              	.LBB169:
 1482              	.LBB168:
  63:Core/Src/BNO055.c **** 		while(1);
 1483              		.loc 1 63 3 is_stmt 1 view .LVU436
 1484 00ba 0122     		movs	r2, #1
 1485 00bc 2021     		movs	r1, #32
 1486 00be 0748     		ldr	r0, .L81+8
ARM GAS  C:\Users\baske\AppData\Local\Temp\ccVCqxIy.s 			page 38


 1487              	.LVL132:
  63:Core/Src/BNO055.c **** 		while(1);
 1488              		.loc 1 63 3 is_stmt 0 view .LVU437
 1489 00c0 FFF7FEFF 		bl	HAL_GPIO_WritePin
 1490              	.LVL133:
 1491              	.L72:
  64:Core/Src/BNO055.c **** 	}
 1492              		.loc 1 64 3 is_stmt 1 view .LVU438
  64:Core/Src/BNO055.c **** 	}
 1493              		.loc 1 64 8 view .LVU439
 1494 00c4 FEE7     		b	.L72
 1495              	.LVL134:
 1496              	.L78:
  64:Core/Src/BNO055.c **** 	}
 1497              		.loc 1 64 8 is_stmt 0 view .LVU440
 1498              	.LBE168:
 1499              	.LBE169:
 1500              	.LBE170:
 1501              	.LBE176:
 1502              	.LBB177:
 1503              	.LBB175:
  63:Core/Src/BNO055.c **** 		while(1);
 1504              		.loc 1 63 3 is_stmt 1 view .LVU441
 1505 00c6 0122     		movs	r2, #1
 1506 00c8 2021     		movs	r1, #32
 1507 00ca 0448     		ldr	r0, .L81+8
 1508              	.LVL135:
  63:Core/Src/BNO055.c **** 		while(1);
 1509              		.loc 1 63 3 is_stmt 0 view .LVU442
 1510 00cc FFF7FEFF 		bl	HAL_GPIO_WritePin
 1511              	.LVL136:
 1512              	.L74:
  64:Core/Src/BNO055.c **** 	}
 1513              		.loc 1 64 3 is_stmt 1 view .LVU443
  64:Core/Src/BNO055.c **** 	}
 1514              		.loc 1 64 8 view .LVU444
 1515 00d0 FEE7     		b	.L74
 1516              	.L82:
 1517 00d2 00BF     		.align	2
 1518              	.L81:
 1519 00d4 00000000 		.word	.LANCHOR1
 1520 00d8 00000000 		.word	.LANCHOR0
 1521 00dc 00000240 		.word	1073872896
 1522              	.LBE175:
 1523              	.LBE177:
 1524              		.cfi_endproc
 1525              	.LFE138:
 1527              		.section	.text.BNO055_Calibrate,"ax",%progbits
 1528              		.align	1
 1529              		.global	BNO055_Calibrate
 1530              		.syntax unified
 1531              		.thumb
 1532              		.thumb_func
 1534              	BNO055_Calibrate:
 1535              	.LFB139:
 252:Core/Src/BNO055.c **** 
 253:Core/Src/BNO055.c **** BNO055_ERROR BNO055_Calibrate(void){
ARM GAS  C:\Users\baske\AppData\Local\Temp\ccVCqxIy.s 			page 39


 1536              		.loc 1 253 36 view -0
 1537              		.cfi_startproc
 1538              		@ args = 0, pretend = 0, frame = 0
 1539              		@ frame_needed = 0, uses_anonymous_args = 0
 1540              		@ link register save eliminated.
 254:Core/Src/BNO055.c **** 
 255:Core/Src/BNO055.c **** 
 256:Core/Src/BNO055.c **** 	return BNO055_SUCCESS;
 1541              		.loc 1 256 2 view .LVU446
 257:Core/Src/BNO055.c **** 
 258:Core/Src/BNO055.c **** }
 1542              		.loc 1 258 1 is_stmt 0 view .LVU447
 1543 0000 0020     		movs	r0, #0
 1544 0002 7047     		bx	lr
 1545              		.cfi_endproc
 1546              	.LFE139:
 1548              		.section	.text.BNO055_Get_Accel,"ax",%progbits
 1549              		.align	1
 1550              		.global	BNO055_Get_Accel
 1551              		.syntax unified
 1552              		.thumb
 1553              		.thumb_func
 1555              	BNO055_Get_Accel:
 1556              	.LVL137:
 1557              	.LFB140:
 259:Core/Src/BNO055.c **** 
 260:Core/Src/BNO055.c **** BNO055_ERROR BNO055_Get_Accel(BNO055_Axis_Vec_t* vec){
 1558              		.loc 1 260 54 is_stmt 1 view -0
 1559              		.cfi_startproc
 1560              		@ args = 0, pretend = 0, frame = 16
 1561              		@ frame_needed = 0, uses_anonymous_args = 0
 1562              		.loc 1 260 54 is_stmt 0 view .LVU449
 1563 0000 F0B5     		push	{r4, r5, r6, r7, lr}
 1564              		.cfi_def_cfa_offset 20
 1565              		.cfi_offset 4, -20
 1566              		.cfi_offset 5, -16
 1567              		.cfi_offset 6, -12
 1568              		.cfi_offset 7, -8
 1569              		.cfi_offset 14, -4
 1570 0002 87B0     		sub	sp, sp, #28
 1571              		.cfi_def_cfa_offset 48
 1572 0004 0446     		mov	r4, r0
 261:Core/Src/BNO055.c **** 
 262:Core/Src/BNO055.c **** 	HAL_StatusTypeDef error;
 1573              		.loc 1 262 2 is_stmt 1 view .LVU450
 263:Core/Src/BNO055.c **** 	uint8_t tempBuf[6];
 1574              		.loc 1 263 2 view .LVU451
 264:Core/Src/BNO055.c **** 
 265:Core/Src/BNO055.c **** 	/* Makes sure BNO055 is in NDOF mode and Page 0 */
 266:Core/Src/BNO055.c **** 	BNO055_STATUS_CHECK_AND_SET(&state, NDOF, BNO055_PAGE_0);
 1575              		.loc 1 266 2 view .LVU452
 1576              	.LVL138:
 1577              	.LBB192:
 1578              	.LBI192:
  73:Core/Src/BNO055.c **** 
 1579              		.loc 1 73 20 view .LVU453
 1580              	.LBB193:
ARM GAS  C:\Users\baske\AppData\Local\Temp\ccVCqxIy.s 			page 40


  75:Core/Src/BNO055.c **** 
 1581              		.loc 1 75 2 view .LVU454
  78:Core/Src/BNO055.c **** 		error = BNO055_Write(BNO055_OPR_MODE, newMode);
 1582              		.loc 1 78 2 view .LVU455
  78:Core/Src/BNO055.c **** 		error = BNO055_Write(BNO055_OPR_MODE, newMode);
 1583              		.loc 1 78 14 is_stmt 0 view .LVU456
 1584 0006 494B     		ldr	r3, .L99
 1585 0008 1B78     		ldrb	r3, [r3]	@ zero_extendqisi2
  78:Core/Src/BNO055.c **** 		error = BNO055_Write(BNO055_OPR_MODE, newMode);
 1586              		.loc 1 78 4 view .LVU457
 1587 000a 0C2B     		cmp	r3, #12
 1588 000c 4DD1     		bne	.L94
 1589              	.LVL139:
 1590              	.L85:
  86:Core/Src/BNO055.c **** 		error = BNO055_Write(BNO055_PAGE_ID, newPage);
 1591              		.loc 1 86 2 is_stmt 1 view .LVU458
  86:Core/Src/BNO055.c **** 		error = BNO055_Write(BNO055_PAGE_ID, newPage);
 1592              		.loc 1 86 14 is_stmt 0 view .LVU459
 1593 000e 474B     		ldr	r3, .L99
 1594 0010 5B78     		ldrb	r3, [r3, #1]	@ zero_extendqisi2
  86:Core/Src/BNO055.c **** 		error = BNO055_Write(BNO055_PAGE_ID, newPage);
 1595              		.loc 1 86 4 view .LVU460
 1596 0012 002B     		cmp	r3, #0
 1597 0014 66D1     		bne	.L95
 1598              	.L88:
 1599              	.LVL140:
  86:Core/Src/BNO055.c **** 		error = BNO055_Write(BNO055_PAGE_ID, newPage);
 1600              		.loc 1 86 4 view .LVU461
 1601              	.LBE193:
 1602              	.LBE192:
 267:Core/Src/BNO055.c **** 
 268:Core/Src/BNO055.c **** 	/* Grab Accel LSB and MSB data of all axes */
 269:Core/Src/BNO055.c **** 	error = BNO055_Read(BNO055_ACC_DATA_X_LSB, tempBuf, 6);
 1603              		.loc 1 269 2 is_stmt 1 view .LVU462
 1604 0016 0823     		movs	r3, #8
 1605 0018 8DF80C30 		strb	r3, [sp, #12]
 1606              	.LVL141:
 1607              	.LBB207:
 1608              	.LBI207:
  33:Core/Src/BNO055.c **** 
 1609              		.loc 1 33 33 view .LVU463
 1610              	.LBB208:
  35:Core/Src/BNO055.c **** 
 1611              		.loc 1 35 2 view .LVU464
  37:Core/Src/BNO055.c **** 	error |= HAL_I2C_Master_Receive(BNO055_I2C, BNO055_I2C_ADDR<<1, buf, len, BNO055_READ_TIMEOUT);
 1612              		.loc 1 37 2 view .LVU465
  37:Core/Src/BNO055.c **** 	error |= HAL_I2C_Master_Receive(BNO055_I2C, BNO055_I2C_ADDR<<1, buf, len, BNO055_READ_TIMEOUT);
 1613              		.loc 1 37 10 is_stmt 0 view .LVU466
 1614 001c 444E     		ldr	r6, .L99+4
 1615 001e 6427     		movs	r7, #100
 1616 0020 0097     		str	r7, [sp]
 1617 0022 0123     		movs	r3, #1
 1618              	.LVL142:
  37:Core/Src/BNO055.c **** 	error |= HAL_I2C_Master_Receive(BNO055_I2C, BNO055_I2C_ADDR<<1, buf, len, BNO055_READ_TIMEOUT);
 1619              		.loc 1 37 10 view .LVU467
 1620 0024 03AA     		add	r2, sp, #12
 1621              	.LVL143:
ARM GAS  C:\Users\baske\AppData\Local\Temp\ccVCqxIy.s 			page 41


  37:Core/Src/BNO055.c **** 	error |= HAL_I2C_Master_Receive(BNO055_I2C, BNO055_I2C_ADDR<<1, buf, len, BNO055_READ_TIMEOUT);
 1622              		.loc 1 37 10 view .LVU468
 1623 0026 5021     		movs	r1, #80
 1624 0028 3068     		ldr	r0, [r6]
 1625 002a FFF7FEFF 		bl	HAL_I2C_Master_Transmit
 1626              	.LVL144:
  37:Core/Src/BNO055.c **** 	error |= HAL_I2C_Master_Receive(BNO055_I2C, BNO055_I2C_ADDR<<1, buf, len, BNO055_READ_TIMEOUT);
 1627              		.loc 1 37 10 view .LVU469
 1628 002e 0546     		mov	r5, r0
 1629              	.LVL145:
  38:Core/Src/BNO055.c **** 
 1630              		.loc 1 38 2 is_stmt 1 view .LVU470
  38:Core/Src/BNO055.c **** 
 1631              		.loc 1 38 11 is_stmt 0 view .LVU471
 1632 0030 0097     		str	r7, [sp]
 1633 0032 0623     		movs	r3, #6
 1634 0034 04AA     		add	r2, sp, #16
 1635              	.LVL146:
  38:Core/Src/BNO055.c **** 
 1636              		.loc 1 38 11 view .LVU472
 1637 0036 5021     		movs	r1, #80
 1638 0038 3068     		ldr	r0, [r6]
 1639 003a FFF7FEFF 		bl	HAL_I2C_Master_Receive
 1640              	.LVL147:
  38:Core/Src/BNO055.c **** 
 1641              		.loc 1 38 8 view .LVU473
 1642 003e 0543     		orrs	r5, r5, r0
 1643              	.LVL148:
  40:Core/Src/BNO055.c **** 
 1644              		.loc 1 40 2 is_stmt 1 view .LVU474
  40:Core/Src/BNO055.c **** 
 1645              		.loc 1 40 2 is_stmt 0 view .LVU475
 1646              	.LBE208:
 1647              	.LBE207:
 270:Core/Src/BNO055.c **** 	BNO055_ERROR_HANDLE(error);
 1648              		.loc 1 270 2 is_stmt 1 view .LVU476
 1649              	.LBB209:
 1650              	.LBI209:
  61:Core/Src/BNO055.c **** 	if(error != HAL_OK){
 1651              		.loc 1 61 20 view .LVU477
 1652              	.LBB210:
  62:Core/Src/BNO055.c **** 		HAL_GPIO_WritePin(LD2_GPIO_Port, LD2_Pin, GPIO_PIN_SET);
 1653              		.loc 1 62 2 view .LVU478
  62:Core/Src/BNO055.c **** 		HAL_GPIO_WritePin(LD2_GPIO_Port, LD2_Pin, GPIO_PIN_SET);
 1654              		.loc 1 62 4 is_stmt 0 view .LVU479
 1655 0040 15F0FF0F 		tst	r5, #255
 1656 0044 6BD1     		bne	.L96
 1657              	.LVL149:
  62:Core/Src/BNO055.c **** 		HAL_GPIO_WritePin(LD2_GPIO_Port, LD2_Pin, GPIO_PIN_SET);
 1658              		.loc 1 62 4 view .LVU480
 1659              	.LBE210:
 1660              	.LBE209:
 271:Core/Src/BNO055.c **** 
 272:Core/Src/BNO055.c **** 	/* Parse Data into Struct */
 273:Core/Src/BNO055.c **** 	vec->x = (int16_t)((tempBuf[1]<<8) | tempBuf[0]) / BN0055_ACCEL_MS2_SCALE;
 1661              		.loc 1 273 2 is_stmt 1 view .LVU481
 1662              		.loc 1 273 29 is_stmt 0 view .LVU482
ARM GAS  C:\Users\baske\AppData\Local\Temp\ccVCqxIy.s 			page 42


 1663 0046 9DF81120 		ldrb	r2, [sp, #17]	@ zero_extendqisi2
 1664              		.loc 1 273 46 view .LVU483
 1665 004a 9DF81030 		ldrb	r3, [sp, #16]	@ zero_extendqisi2
 1666              		.loc 1 273 11 view .LVU484
 1667 004e 43EA0223 		orr	r3, r3, r2, lsl #8
 1668 0052 1BB2     		sxth	r3, r3
 1669              		.loc 1 273 51 view .LVU485
 1670 0054 07EE903A 		vmov	s15, r3	@ int
 1671 0058 F8EEE77A 		vcvt.f32.s32	s15, s15
 1672 005c 9FED357A 		vldr.32	s14, .L99+8
 1673 0060 C7EE876A 		vdiv.f32	s13, s15, s14
 1674              		.loc 1 273 9 view .LVU486
 1675 0064 C4ED006A 		vstr.32	s13, [r4]
 274:Core/Src/BNO055.c **** 	vec->y = (int16_t)((tempBuf[3]<<8) | tempBuf[2]) / BN0055_ACCEL_MS2_SCALE;
 1676              		.loc 1 274 2 is_stmt 1 view .LVU487
 1677              		.loc 1 274 29 is_stmt 0 view .LVU488
 1678 0068 9DF81320 		ldrb	r2, [sp, #19]	@ zero_extendqisi2
 1679              		.loc 1 274 46 view .LVU489
 1680 006c 9DF81230 		ldrb	r3, [sp, #18]	@ zero_extendqisi2
 1681              		.loc 1 274 11 view .LVU490
 1682 0070 43EA0223 		orr	r3, r3, r2, lsl #8
 1683 0074 1BB2     		sxth	r3, r3
 1684              		.loc 1 274 51 view .LVU491
 1685 0076 07EE903A 		vmov	s15, r3	@ int
 1686 007a F8EEE77A 		vcvt.f32.s32	s15, s15
 1687 007e C7EE876A 		vdiv.f32	s13, s15, s14
 1688              		.loc 1 274 9 view .LVU492
 1689 0082 C4ED016A 		vstr.32	s13, [r4, #4]
 275:Core/Src/BNO055.c **** 	vec->z = (int16_t)((tempBuf[5]<<8) | tempBuf[4]) / BN0055_ACCEL_MS2_SCALE;
 1690              		.loc 1 275 2 is_stmt 1 view .LVU493
 1691              		.loc 1 275 29 is_stmt 0 view .LVU494
 1692 0086 9DF81520 		ldrb	r2, [sp, #21]	@ zero_extendqisi2
 1693              		.loc 1 275 46 view .LVU495
 1694 008a 9DF81430 		ldrb	r3, [sp, #20]	@ zero_extendqisi2
 1695              		.loc 1 275 11 view .LVU496
 1696 008e 43EA0223 		orr	r3, r3, r2, lsl #8
 1697 0092 1BB2     		sxth	r3, r3
 1698              		.loc 1 275 51 view .LVU497
 1699 0094 07EE903A 		vmov	s15, r3	@ int
 1700 0098 F8EEE77A 		vcvt.f32.s32	s15, s15
 1701 009c C7EE876A 		vdiv.f32	s13, s15, s14
 1702              		.loc 1 275 9 view .LVU498
 1703 00a0 C4ED026A 		vstr.32	s13, [r4, #8]
 276:Core/Src/BNO055.c **** 
 277:Core/Src/BNO055.c **** 	return BNO055_SUCCESS;
 1704              		.loc 1 277 2 is_stmt 1 view .LVU499
 278:Core/Src/BNO055.c **** 
 279:Core/Src/BNO055.c **** }
 1705              		.loc 1 279 1 is_stmt 0 view .LVU500
 1706 00a4 0020     		movs	r0, #0
 1707 00a6 07B0     		add	sp, sp, #28
 1708              		.cfi_remember_state
 1709              		.cfi_def_cfa_offset 20
 1710              		@ sp needed
 1711 00a8 F0BD     		pop	{r4, r5, r6, r7, pc}
 1712              	.LVL150:
 1713              	.L94:
ARM GAS  C:\Users\baske\AppData\Local\Temp\ccVCqxIy.s 			page 43


 1714              		.cfi_restore_state
 1715              	.LBB212:
 1716              	.LBB206:
  79:Core/Src/BNO055.c **** 		BNO055_ERROR_HANDLE(error);
 1717              		.loc 1 79 3 is_stmt 1 view .LVU501
 1718              	.LBB194:
 1719              	.LBI194:
  47:Core/Src/BNO055.c **** 
 1720              		.loc 1 47 33 view .LVU502
 1721              	.LBB195:
  49:Core/Src/BNO055.c **** 	uint8_t transmitBuf[2] = {reg, data};
 1722              		.loc 1 49 2 view .LVU503
  50:Core/Src/BNO055.c **** 
 1723              		.loc 1 50 2 view .LVU504
  50:Core/Src/BNO055.c **** 
 1724              		.loc 1 50 10 is_stmt 0 view .LVU505
 1725 00aa 3D23     		movs	r3, #61
 1726 00ac 8DF80C30 		strb	r3, [sp, #12]
 1727 00b0 0C23     		movs	r3, #12
 1728 00b2 8DF80D30 		strb	r3, [sp, #13]
  52:Core/Src/BNO055.c **** 
 1729              		.loc 1 52 2 is_stmt 1 view .LVU506
  52:Core/Src/BNO055.c **** 
 1730              		.loc 1 52 10 is_stmt 0 view .LVU507
 1731 00b6 6423     		movs	r3, #100
 1732 00b8 0093     		str	r3, [sp]
 1733 00ba 0223     		movs	r3, #2
 1734 00bc 03AA     		add	r2, sp, #12
 1735 00be 5021     		movs	r1, #80
 1736 00c0 1B48     		ldr	r0, .L99+4
 1737              	.LVL151:
  52:Core/Src/BNO055.c **** 
 1738              		.loc 1 52 10 view .LVU508
 1739 00c2 0068     		ldr	r0, [r0]
 1740 00c4 FFF7FEFF 		bl	HAL_I2C_Master_Transmit
 1741              	.LVL152:
  54:Core/Src/BNO055.c **** 
 1742              		.loc 1 54 2 is_stmt 1 view .LVU509
  54:Core/Src/BNO055.c **** 
 1743              		.loc 1 54 2 is_stmt 0 view .LVU510
 1744              	.LBE195:
 1745              	.LBE194:
  80:Core/Src/BNO055.c **** 		currState->currentMode = newMode;
 1746              		.loc 1 80 3 is_stmt 1 view .LVU511
 1747              	.LBB196:
 1748              	.LBI196:
  61:Core/Src/BNO055.c **** 	if(error != HAL_OK){
 1749              		.loc 1 61 20 view .LVU512
 1750              	.LBB197:
  62:Core/Src/BNO055.c **** 		HAL_GPIO_WritePin(LD2_GPIO_Port, LD2_Pin, GPIO_PIN_SET);
 1751              		.loc 1 62 2 view .LVU513
  62:Core/Src/BNO055.c **** 		HAL_GPIO_WritePin(LD2_GPIO_Port, LD2_Pin, GPIO_PIN_SET);
 1752              		.loc 1 62 4 is_stmt 0 view .LVU514
 1753 00c8 30B9     		cbnz	r0, .L97
 1754              	.LVL153:
  62:Core/Src/BNO055.c **** 		HAL_GPIO_WritePin(LD2_GPIO_Port, LD2_Pin, GPIO_PIN_SET);
 1755              		.loc 1 62 4 view .LVU515
ARM GAS  C:\Users\baske\AppData\Local\Temp\ccVCqxIy.s 			page 44


 1756              	.LBE197:
 1757              	.LBE196:
  81:Core/Src/BNO055.c **** 		HAL_Delay(20);
 1758              		.loc 1 81 3 is_stmt 1 view .LVU516
  81:Core/Src/BNO055.c **** 		HAL_Delay(20);
 1759              		.loc 1 81 26 is_stmt 0 view .LVU517
 1760 00ca 184B     		ldr	r3, .L99
 1761 00cc 0C22     		movs	r2, #12
 1762 00ce 1A70     		strb	r2, [r3]
  82:Core/Src/BNO055.c **** 	}
 1763              		.loc 1 82 3 is_stmt 1 view .LVU518
 1764 00d0 1420     		movs	r0, #20
 1765              	.LVL154:
  82:Core/Src/BNO055.c **** 	}
 1766              		.loc 1 82 3 is_stmt 0 view .LVU519
 1767 00d2 FFF7FEFF 		bl	HAL_Delay
 1768              	.LVL155:
 1769 00d6 9AE7     		b	.L85
 1770              	.LVL156:
 1771              	.L97:
 1772              	.LBB199:
 1773              	.LBB198:
  63:Core/Src/BNO055.c **** 		while(1);
 1774              		.loc 1 63 3 is_stmt 1 view .LVU520
 1775 00d8 0122     		movs	r2, #1
 1776 00da 2021     		movs	r1, #32
 1777 00dc 1648     		ldr	r0, .L99+12
 1778              	.LVL157:
  63:Core/Src/BNO055.c **** 		while(1);
 1779              		.loc 1 63 3 is_stmt 0 view .LVU521
 1780 00de FFF7FEFF 		bl	HAL_GPIO_WritePin
 1781              	.LVL158:
 1782              	.L87:
  64:Core/Src/BNO055.c **** 	}
 1783              		.loc 1 64 3 is_stmt 1 view .LVU522
  64:Core/Src/BNO055.c **** 	}
 1784              		.loc 1 64 8 view .LVU523
 1785 00e2 FEE7     		b	.L87
 1786              	.L95:
  64:Core/Src/BNO055.c **** 	}
 1787              		.loc 1 64 8 is_stmt 0 view .LVU524
 1788              	.LBE198:
 1789              	.LBE199:
  87:Core/Src/BNO055.c **** 		BNO055_ERROR_HANDLE(error);
 1790              		.loc 1 87 3 is_stmt 1 view .LVU525
 1791              	.LVL159:
 1792              	.LBB200:
 1793              	.LBI200:
  47:Core/Src/BNO055.c **** 
 1794              		.loc 1 47 33 view .LVU526
 1795              	.LBB201:
  49:Core/Src/BNO055.c **** 	uint8_t transmitBuf[2] = {reg, data};
 1796              		.loc 1 49 2 view .LVU527
  50:Core/Src/BNO055.c **** 
 1797              		.loc 1 50 2 view .LVU528
  50:Core/Src/BNO055.c **** 
 1798              		.loc 1 50 10 is_stmt 0 view .LVU529
ARM GAS  C:\Users\baske\AppData\Local\Temp\ccVCqxIy.s 			page 45


 1799 00e4 0723     		movs	r3, #7
 1800 00e6 8DF80C30 		strb	r3, [sp, #12]
 1801 00ea 0023     		movs	r3, #0
 1802 00ec 8DF80D30 		strb	r3, [sp, #13]
  52:Core/Src/BNO055.c **** 
 1803              		.loc 1 52 2 is_stmt 1 view .LVU530
  52:Core/Src/BNO055.c **** 
 1804              		.loc 1 52 10 is_stmt 0 view .LVU531
 1805 00f0 6423     		movs	r3, #100
 1806 00f2 0093     		str	r3, [sp]
 1807 00f4 0223     		movs	r3, #2
 1808 00f6 03AA     		add	r2, sp, #12
 1809 00f8 5021     		movs	r1, #80
 1810 00fa 0D48     		ldr	r0, .L99+4
 1811 00fc 0068     		ldr	r0, [r0]
 1812 00fe FFF7FEFF 		bl	HAL_I2C_Master_Transmit
 1813              	.LVL160:
  54:Core/Src/BNO055.c **** 
 1814              		.loc 1 54 2 is_stmt 1 view .LVU532
  54:Core/Src/BNO055.c **** 
 1815              		.loc 1 54 2 is_stmt 0 view .LVU533
 1816              	.LBE201:
 1817              	.LBE200:
  88:Core/Src/BNO055.c **** 		currState->currentPage = newPage;
 1818              		.loc 1 88 3 is_stmt 1 view .LVU534
 1819              	.LBB202:
 1820              	.LBI202:
  61:Core/Src/BNO055.c **** 	if(error != HAL_OK){
 1821              		.loc 1 61 20 view .LVU535
 1822              	.LBB203:
  62:Core/Src/BNO055.c **** 		HAL_GPIO_WritePin(LD2_GPIO_Port, LD2_Pin, GPIO_PIN_SET);
 1823              		.loc 1 62 2 view .LVU536
  62:Core/Src/BNO055.c **** 		HAL_GPIO_WritePin(LD2_GPIO_Port, LD2_Pin, GPIO_PIN_SET);
 1824              		.loc 1 62 4 is_stmt 0 view .LVU537
 1825 0102 30B9     		cbnz	r0, .L98
 1826              	.LVL161:
  62:Core/Src/BNO055.c **** 		HAL_GPIO_WritePin(LD2_GPIO_Port, LD2_Pin, GPIO_PIN_SET);
 1827              		.loc 1 62 4 view .LVU538
 1828              	.LBE203:
 1829              	.LBE202:
  89:Core/Src/BNO055.c **** 		HAL_Delay(20);
 1830              		.loc 1 89 3 is_stmt 1 view .LVU539
  89:Core/Src/BNO055.c **** 		HAL_Delay(20);
 1831              		.loc 1 89 26 is_stmt 0 view .LVU540
 1832 0104 094B     		ldr	r3, .L99
 1833 0106 0022     		movs	r2, #0
 1834 0108 5A70     		strb	r2, [r3, #1]
  90:Core/Src/BNO055.c **** 	}
 1835              		.loc 1 90 3 is_stmt 1 view .LVU541
 1836 010a 1420     		movs	r0, #20
 1837              	.LVL162:
  90:Core/Src/BNO055.c **** 	}
 1838              		.loc 1 90 3 is_stmt 0 view .LVU542
 1839 010c FFF7FEFF 		bl	HAL_Delay
 1840              	.LVL163:
 1841 0110 81E7     		b	.L88
 1842              	.LVL164:
ARM GAS  C:\Users\baske\AppData\Local\Temp\ccVCqxIy.s 			page 46


 1843              	.L98:
 1844              	.LBB205:
 1845              	.LBB204:
  63:Core/Src/BNO055.c **** 		while(1);
 1846              		.loc 1 63 3 is_stmt 1 view .LVU543
 1847 0112 0122     		movs	r2, #1
 1848 0114 2021     		movs	r1, #32
 1849 0116 0848     		ldr	r0, .L99+12
 1850              	.LVL165:
  63:Core/Src/BNO055.c **** 		while(1);
 1851              		.loc 1 63 3 is_stmt 0 view .LVU544
 1852 0118 FFF7FEFF 		bl	HAL_GPIO_WritePin
 1853              	.LVL166:
 1854              	.L90:
  64:Core/Src/BNO055.c **** 	}
 1855              		.loc 1 64 3 is_stmt 1 view .LVU545
  64:Core/Src/BNO055.c **** 	}
 1856              		.loc 1 64 8 view .LVU546
 1857 011c FEE7     		b	.L90
 1858              	.LVL167:
 1859              	.L96:
  64:Core/Src/BNO055.c **** 	}
 1860              		.loc 1 64 8 is_stmt 0 view .LVU547
 1861              	.LBE204:
 1862              	.LBE205:
 1863              	.LBE206:
 1864              	.LBE212:
 1865              	.LBB213:
 1866              	.LBB211:
  63:Core/Src/BNO055.c **** 		while(1);
 1867              		.loc 1 63 3 is_stmt 1 view .LVU548
 1868 011e 0122     		movs	r2, #1
 1869 0120 2021     		movs	r1, #32
 1870 0122 0548     		ldr	r0, .L99+12
 1871 0124 FFF7FEFF 		bl	HAL_GPIO_WritePin
 1872              	.LVL168:
 1873              	.L92:
  64:Core/Src/BNO055.c **** 	}
 1874              		.loc 1 64 3 view .LVU549
  64:Core/Src/BNO055.c **** 	}
 1875              		.loc 1 64 8 view .LVU550
 1876 0128 FEE7     		b	.L92
 1877              	.L100:
 1878 012a 00BF     		.align	2
 1879              	.L99:
 1880 012c 00000000 		.word	.LANCHOR1
 1881 0130 00000000 		.word	.LANCHOR0
 1882 0134 0000C842 		.word	1120403456
 1883 0138 00000240 		.word	1073872896
 1884              	.LBE211:
 1885              	.LBE213:
 1886              		.cfi_endproc
 1887              	.LFE140:
 1889              		.section	.text.BNO055_Get_Gyro,"ax",%progbits
 1890              		.align	1
 1891              		.global	BNO055_Get_Gyro
 1892              		.syntax unified
ARM GAS  C:\Users\baske\AppData\Local\Temp\ccVCqxIy.s 			page 47


 1893              		.thumb
 1894              		.thumb_func
 1896              	BNO055_Get_Gyro:
 1897              	.LVL169:
 1898              	.LFB141:
 280:Core/Src/BNO055.c **** 
 281:Core/Src/BNO055.c **** BNO055_ERROR BNO055_Get_Gyro(BNO055_Axis_Vec_t* vec){
 1899              		.loc 1 281 53 view -0
 1900              		.cfi_startproc
 1901              		@ args = 0, pretend = 0, frame = 16
 1902              		@ frame_needed = 0, uses_anonymous_args = 0
 1903              		.loc 1 281 53 is_stmt 0 view .LVU552
 1904 0000 F0B5     		push	{r4, r5, r6, r7, lr}
 1905              		.cfi_def_cfa_offset 20
 1906              		.cfi_offset 4, -20
 1907              		.cfi_offset 5, -16
 1908              		.cfi_offset 6, -12
 1909              		.cfi_offset 7, -8
 1910              		.cfi_offset 14, -4
 1911 0002 87B0     		sub	sp, sp, #28
 1912              		.cfi_def_cfa_offset 48
 1913 0004 0446     		mov	r4, r0
 282:Core/Src/BNO055.c **** 
 283:Core/Src/BNO055.c **** 	HAL_StatusTypeDef error;
 1914              		.loc 1 283 2 is_stmt 1 view .LVU553
 284:Core/Src/BNO055.c **** 	uint8_t tempBuf[6];
 1915              		.loc 1 284 2 view .LVU554
 285:Core/Src/BNO055.c **** 
 286:Core/Src/BNO055.c **** 	/* Makes sure BNO055 is in NDOF mode and Page 0 */
 287:Core/Src/BNO055.c **** 	BNO055_STATUS_CHECK_AND_SET(&state, NDOF, BNO055_PAGE_0);
 1916              		.loc 1 287 2 view .LVU555
 1917              	.LVL170:
 1918              	.LBB228:
 1919              	.LBI228:
  73:Core/Src/BNO055.c **** 
 1920              		.loc 1 73 20 view .LVU556
 1921              	.LBB229:
  75:Core/Src/BNO055.c **** 
 1922              		.loc 1 75 2 view .LVU557
  78:Core/Src/BNO055.c **** 		error = BNO055_Write(BNO055_OPR_MODE, newMode);
 1923              		.loc 1 78 2 view .LVU558
  78:Core/Src/BNO055.c **** 		error = BNO055_Write(BNO055_OPR_MODE, newMode);
 1924              		.loc 1 78 14 is_stmt 0 view .LVU559
 1925 0006 494B     		ldr	r3, .L116
 1926 0008 1B78     		ldrb	r3, [r3]	@ zero_extendqisi2
  78:Core/Src/BNO055.c **** 		error = BNO055_Write(BNO055_OPR_MODE, newMode);
 1927              		.loc 1 78 4 view .LVU560
 1928 000a 0C2B     		cmp	r3, #12
 1929 000c 4DD1     		bne	.L111
 1930              	.LVL171:
 1931              	.L102:
  86:Core/Src/BNO055.c **** 		error = BNO055_Write(BNO055_PAGE_ID, newPage);
 1932              		.loc 1 86 2 is_stmt 1 view .LVU561
  86:Core/Src/BNO055.c **** 		error = BNO055_Write(BNO055_PAGE_ID, newPage);
 1933              		.loc 1 86 14 is_stmt 0 view .LVU562
 1934 000e 474B     		ldr	r3, .L116
 1935 0010 5B78     		ldrb	r3, [r3, #1]	@ zero_extendqisi2
ARM GAS  C:\Users\baske\AppData\Local\Temp\ccVCqxIy.s 			page 48


  86:Core/Src/BNO055.c **** 		error = BNO055_Write(BNO055_PAGE_ID, newPage);
 1936              		.loc 1 86 4 view .LVU563
 1937 0012 002B     		cmp	r3, #0
 1938 0014 66D1     		bne	.L112
 1939              	.L105:
 1940              	.LVL172:
  86:Core/Src/BNO055.c **** 		error = BNO055_Write(BNO055_PAGE_ID, newPage);
 1941              		.loc 1 86 4 view .LVU564
 1942              	.LBE229:
 1943              	.LBE228:
 288:Core/Src/BNO055.c **** 
 289:Core/Src/BNO055.c **** 	/* Grab Gyro LSB and MSB data of all axes */
 290:Core/Src/BNO055.c **** 	error = BNO055_Read(BNO055_GYR_DATA_X_LSB, tempBuf, 6);
 1944              		.loc 1 290 2 is_stmt 1 view .LVU565
 1945 0016 1423     		movs	r3, #20
 1946 0018 8DF80C30 		strb	r3, [sp, #12]
 1947              	.LVL173:
 1948              	.LBB243:
 1949              	.LBI243:
  33:Core/Src/BNO055.c **** 
 1950              		.loc 1 33 33 view .LVU566
 1951              	.LBB244:
  35:Core/Src/BNO055.c **** 
 1952              		.loc 1 35 2 view .LVU567
  37:Core/Src/BNO055.c **** 	error |= HAL_I2C_Master_Receive(BNO055_I2C, BNO055_I2C_ADDR<<1, buf, len, BNO055_READ_TIMEOUT);
 1953              		.loc 1 37 2 view .LVU568
  37:Core/Src/BNO055.c **** 	error |= HAL_I2C_Master_Receive(BNO055_I2C, BNO055_I2C_ADDR<<1, buf, len, BNO055_READ_TIMEOUT);
 1954              		.loc 1 37 10 is_stmt 0 view .LVU569
 1955 001c 444E     		ldr	r6, .L116+4
 1956 001e 6427     		movs	r7, #100
 1957 0020 0097     		str	r7, [sp]
 1958 0022 0123     		movs	r3, #1
 1959              	.LVL174:
  37:Core/Src/BNO055.c **** 	error |= HAL_I2C_Master_Receive(BNO055_I2C, BNO055_I2C_ADDR<<1, buf, len, BNO055_READ_TIMEOUT);
 1960              		.loc 1 37 10 view .LVU570
 1961 0024 03AA     		add	r2, sp, #12
 1962              	.LVL175:
  37:Core/Src/BNO055.c **** 	error |= HAL_I2C_Master_Receive(BNO055_I2C, BNO055_I2C_ADDR<<1, buf, len, BNO055_READ_TIMEOUT);
 1963              		.loc 1 37 10 view .LVU571
 1964 0026 5021     		movs	r1, #80
 1965 0028 3068     		ldr	r0, [r6]
 1966 002a FFF7FEFF 		bl	HAL_I2C_Master_Transmit
 1967              	.LVL176:
  37:Core/Src/BNO055.c **** 	error |= HAL_I2C_Master_Receive(BNO055_I2C, BNO055_I2C_ADDR<<1, buf, len, BNO055_READ_TIMEOUT);
 1968              		.loc 1 37 10 view .LVU572
 1969 002e 0546     		mov	r5, r0
 1970              	.LVL177:
  38:Core/Src/BNO055.c **** 
 1971              		.loc 1 38 2 is_stmt 1 view .LVU573
  38:Core/Src/BNO055.c **** 
 1972              		.loc 1 38 11 is_stmt 0 view .LVU574
 1973 0030 0097     		str	r7, [sp]
 1974 0032 0623     		movs	r3, #6
 1975 0034 04AA     		add	r2, sp, #16
 1976              	.LVL178:
  38:Core/Src/BNO055.c **** 
 1977              		.loc 1 38 11 view .LVU575
ARM GAS  C:\Users\baske\AppData\Local\Temp\ccVCqxIy.s 			page 49


 1978 0036 5021     		movs	r1, #80
 1979 0038 3068     		ldr	r0, [r6]
 1980 003a FFF7FEFF 		bl	HAL_I2C_Master_Receive
 1981              	.LVL179:
  38:Core/Src/BNO055.c **** 
 1982              		.loc 1 38 8 view .LVU576
 1983 003e 0543     		orrs	r5, r5, r0
 1984              	.LVL180:
  40:Core/Src/BNO055.c **** 
 1985              		.loc 1 40 2 is_stmt 1 view .LVU577
  40:Core/Src/BNO055.c **** 
 1986              		.loc 1 40 2 is_stmt 0 view .LVU578
 1987              	.LBE244:
 1988              	.LBE243:
 291:Core/Src/BNO055.c **** 	BNO055_ERROR_HANDLE(error);
 1989              		.loc 1 291 2 is_stmt 1 view .LVU579
 1990              	.LBB245:
 1991              	.LBI245:
  61:Core/Src/BNO055.c **** 	if(error != HAL_OK){
 1992              		.loc 1 61 20 view .LVU580
 1993              	.LBB246:
  62:Core/Src/BNO055.c **** 		HAL_GPIO_WritePin(LD2_GPIO_Port, LD2_Pin, GPIO_PIN_SET);
 1994              		.loc 1 62 2 view .LVU581
  62:Core/Src/BNO055.c **** 		HAL_GPIO_WritePin(LD2_GPIO_Port, LD2_Pin, GPIO_PIN_SET);
 1995              		.loc 1 62 4 is_stmt 0 view .LVU582
 1996 0040 15F0FF0F 		tst	r5, #255
 1997 0044 6BD1     		bne	.L113
 1998              	.LVL181:
  62:Core/Src/BNO055.c **** 		HAL_GPIO_WritePin(LD2_GPIO_Port, LD2_Pin, GPIO_PIN_SET);
 1999              		.loc 1 62 4 view .LVU583
 2000              	.LBE246:
 2001              	.LBE245:
 292:Core/Src/BNO055.c **** 
 293:Core/Src/BNO055.c **** 	/* Parse Data into Vector Struct */
 294:Core/Src/BNO055.c **** 	vec->x = (int16_t)((tempBuf[1]<<8) | tempBuf[0]) / BNO055_GYRO_DPS_SCALE;
 2002              		.loc 1 294 2 is_stmt 1 view .LVU584
 2003              		.loc 1 294 29 is_stmt 0 view .LVU585
 2004 0046 9DF81120 		ldrb	r2, [sp, #17]	@ zero_extendqisi2
 2005              		.loc 1 294 46 view .LVU586
 2006 004a 9DF81030 		ldrb	r3, [sp, #16]	@ zero_extendqisi2
 2007              		.loc 1 294 11 view .LVU587
 2008 004e 43EA0223 		orr	r3, r3, r2, lsl #8
 2009 0052 1BB2     		sxth	r3, r3
 2010 0054 07EE903A 		vmov	s15, r3	@ int
 2011              		.loc 1 294 51 view .LVU588
 2012 0058 F8EEE77A 		vcvt.f32.s32	s15, s15
 2013 005c 9FED357A 		vldr.32	s14, .L116+8
 2014 0060 67EE877A 		vmul.f32	s15, s15, s14
 2015              		.loc 1 294 9 view .LVU589
 2016 0064 C4ED007A 		vstr.32	s15, [r4]
 295:Core/Src/BNO055.c **** 	vec->y = (int16_t)((tempBuf[3]<<8) | tempBuf[2]) / BNO055_GYRO_DPS_SCALE;
 2017              		.loc 1 295 2 is_stmt 1 view .LVU590
 2018              		.loc 1 295 29 is_stmt 0 view .LVU591
 2019 0068 9DF81320 		ldrb	r2, [sp, #19]	@ zero_extendqisi2
 2020              		.loc 1 295 46 view .LVU592
 2021 006c 9DF81230 		ldrb	r3, [sp, #18]	@ zero_extendqisi2
 2022              		.loc 1 295 11 view .LVU593
ARM GAS  C:\Users\baske\AppData\Local\Temp\ccVCqxIy.s 			page 50


 2023 0070 43EA0223 		orr	r3, r3, r2, lsl #8
 2024 0074 1BB2     		sxth	r3, r3
 2025 0076 07EE903A 		vmov	s15, r3	@ int
 2026              		.loc 1 295 51 view .LVU594
 2027 007a F8EEE77A 		vcvt.f32.s32	s15, s15
 2028 007e 67EE877A 		vmul.f32	s15, s15, s14
 2029              		.loc 1 295 9 view .LVU595
 2030 0082 C4ED017A 		vstr.32	s15, [r4, #4]
 296:Core/Src/BNO055.c **** 	vec->z = (int16_t)((tempBuf[5]<<8) | tempBuf[4]) / BNO055_GYRO_DPS_SCALE;
 2031              		.loc 1 296 2 is_stmt 1 view .LVU596
 2032              		.loc 1 296 29 is_stmt 0 view .LVU597
 2033 0086 9DF81520 		ldrb	r2, [sp, #21]	@ zero_extendqisi2
 2034              		.loc 1 296 46 view .LVU598
 2035 008a 9DF81430 		ldrb	r3, [sp, #20]	@ zero_extendqisi2
 2036              		.loc 1 296 11 view .LVU599
 2037 008e 43EA0223 		orr	r3, r3, r2, lsl #8
 2038 0092 1BB2     		sxth	r3, r3
 2039 0094 07EE903A 		vmov	s15, r3	@ int
 2040              		.loc 1 296 51 view .LVU600
 2041 0098 F8EEE77A 		vcvt.f32.s32	s15, s15
 2042 009c 67EE877A 		vmul.f32	s15, s15, s14
 2043              		.loc 1 296 9 view .LVU601
 2044 00a0 C4ED027A 		vstr.32	s15, [r4, #8]
 297:Core/Src/BNO055.c **** 
 298:Core/Src/BNO055.c **** 	return BNO055_SUCCESS;
 2045              		.loc 1 298 2 is_stmt 1 view .LVU602
 299:Core/Src/BNO055.c **** 
 300:Core/Src/BNO055.c **** }
 2046              		.loc 1 300 1 is_stmt 0 view .LVU603
 2047 00a4 0020     		movs	r0, #0
 2048 00a6 07B0     		add	sp, sp, #28
 2049              		.cfi_remember_state
 2050              		.cfi_def_cfa_offset 20
 2051              		@ sp needed
 2052 00a8 F0BD     		pop	{r4, r5, r6, r7, pc}
 2053              	.LVL182:
 2054              	.L111:
 2055              		.cfi_restore_state
 2056              	.LBB248:
 2057              	.LBB242:
  79:Core/Src/BNO055.c **** 		BNO055_ERROR_HANDLE(error);
 2058              		.loc 1 79 3 is_stmt 1 view .LVU604
 2059              	.LBB230:
 2060              	.LBI230:
  47:Core/Src/BNO055.c **** 
 2061              		.loc 1 47 33 view .LVU605
 2062              	.LBB231:
  49:Core/Src/BNO055.c **** 	uint8_t transmitBuf[2] = {reg, data};
 2063              		.loc 1 49 2 view .LVU606
  50:Core/Src/BNO055.c **** 
 2064              		.loc 1 50 2 view .LVU607
  50:Core/Src/BNO055.c **** 
 2065              		.loc 1 50 10 is_stmt 0 view .LVU608
 2066 00aa 3D23     		movs	r3, #61
 2067 00ac 8DF80C30 		strb	r3, [sp, #12]
 2068 00b0 0C23     		movs	r3, #12
 2069 00b2 8DF80D30 		strb	r3, [sp, #13]
ARM GAS  C:\Users\baske\AppData\Local\Temp\ccVCqxIy.s 			page 51


  52:Core/Src/BNO055.c **** 
 2070              		.loc 1 52 2 is_stmt 1 view .LVU609
  52:Core/Src/BNO055.c **** 
 2071              		.loc 1 52 10 is_stmt 0 view .LVU610
 2072 00b6 6423     		movs	r3, #100
 2073 00b8 0093     		str	r3, [sp]
 2074 00ba 0223     		movs	r3, #2
 2075 00bc 03AA     		add	r2, sp, #12
 2076 00be 5021     		movs	r1, #80
 2077 00c0 1B48     		ldr	r0, .L116+4
 2078              	.LVL183:
  52:Core/Src/BNO055.c **** 
 2079              		.loc 1 52 10 view .LVU611
 2080 00c2 0068     		ldr	r0, [r0]
 2081 00c4 FFF7FEFF 		bl	HAL_I2C_Master_Transmit
 2082              	.LVL184:
  54:Core/Src/BNO055.c **** 
 2083              		.loc 1 54 2 is_stmt 1 view .LVU612
  54:Core/Src/BNO055.c **** 
 2084              		.loc 1 54 2 is_stmt 0 view .LVU613
 2085              	.LBE231:
 2086              	.LBE230:
  80:Core/Src/BNO055.c **** 		currState->currentMode = newMode;
 2087              		.loc 1 80 3 is_stmt 1 view .LVU614
 2088              	.LBB232:
 2089              	.LBI232:
  61:Core/Src/BNO055.c **** 	if(error != HAL_OK){
 2090              		.loc 1 61 20 view .LVU615
 2091              	.LBB233:
  62:Core/Src/BNO055.c **** 		HAL_GPIO_WritePin(LD2_GPIO_Port, LD2_Pin, GPIO_PIN_SET);
 2092              		.loc 1 62 2 view .LVU616
  62:Core/Src/BNO055.c **** 		HAL_GPIO_WritePin(LD2_GPIO_Port, LD2_Pin, GPIO_PIN_SET);
 2093              		.loc 1 62 4 is_stmt 0 view .LVU617
 2094 00c8 30B9     		cbnz	r0, .L114
 2095              	.LVL185:
  62:Core/Src/BNO055.c **** 		HAL_GPIO_WritePin(LD2_GPIO_Port, LD2_Pin, GPIO_PIN_SET);
 2096              		.loc 1 62 4 view .LVU618
 2097              	.LBE233:
 2098              	.LBE232:
  81:Core/Src/BNO055.c **** 		HAL_Delay(20);
 2099              		.loc 1 81 3 is_stmt 1 view .LVU619
  81:Core/Src/BNO055.c **** 		HAL_Delay(20);
 2100              		.loc 1 81 26 is_stmt 0 view .LVU620
 2101 00ca 184B     		ldr	r3, .L116
 2102 00cc 0C22     		movs	r2, #12
 2103 00ce 1A70     		strb	r2, [r3]
  82:Core/Src/BNO055.c **** 	}
 2104              		.loc 1 82 3 is_stmt 1 view .LVU621
 2105 00d0 1420     		movs	r0, #20
 2106              	.LVL186:
  82:Core/Src/BNO055.c **** 	}
 2107              		.loc 1 82 3 is_stmt 0 view .LVU622
 2108 00d2 FFF7FEFF 		bl	HAL_Delay
 2109              	.LVL187:
 2110 00d6 9AE7     		b	.L102
 2111              	.LVL188:
 2112              	.L114:
ARM GAS  C:\Users\baske\AppData\Local\Temp\ccVCqxIy.s 			page 52


 2113              	.LBB235:
 2114              	.LBB234:
  63:Core/Src/BNO055.c **** 		while(1);
 2115              		.loc 1 63 3 is_stmt 1 view .LVU623
 2116 00d8 0122     		movs	r2, #1
 2117 00da 2021     		movs	r1, #32
 2118 00dc 1648     		ldr	r0, .L116+12
 2119              	.LVL189:
  63:Core/Src/BNO055.c **** 		while(1);
 2120              		.loc 1 63 3 is_stmt 0 view .LVU624
 2121 00de FFF7FEFF 		bl	HAL_GPIO_WritePin
 2122              	.LVL190:
 2123              	.L104:
  64:Core/Src/BNO055.c **** 	}
 2124              		.loc 1 64 3 is_stmt 1 view .LVU625
  64:Core/Src/BNO055.c **** 	}
 2125              		.loc 1 64 8 view .LVU626
 2126 00e2 FEE7     		b	.L104
 2127              	.L112:
  64:Core/Src/BNO055.c **** 	}
 2128              		.loc 1 64 8 is_stmt 0 view .LVU627
 2129              	.LBE234:
 2130              	.LBE235:
  87:Core/Src/BNO055.c **** 		BNO055_ERROR_HANDLE(error);
 2131              		.loc 1 87 3 is_stmt 1 view .LVU628
 2132              	.LVL191:
 2133              	.LBB236:
 2134              	.LBI236:
  47:Core/Src/BNO055.c **** 
 2135              		.loc 1 47 33 view .LVU629
 2136              	.LBB237:
  49:Core/Src/BNO055.c **** 	uint8_t transmitBuf[2] = {reg, data};
 2137              		.loc 1 49 2 view .LVU630
  50:Core/Src/BNO055.c **** 
 2138              		.loc 1 50 2 view .LVU631
  50:Core/Src/BNO055.c **** 
 2139              		.loc 1 50 10 is_stmt 0 view .LVU632
 2140 00e4 0723     		movs	r3, #7
 2141 00e6 8DF80C30 		strb	r3, [sp, #12]
 2142 00ea 0023     		movs	r3, #0
 2143 00ec 8DF80D30 		strb	r3, [sp, #13]
  52:Core/Src/BNO055.c **** 
 2144              		.loc 1 52 2 is_stmt 1 view .LVU633
  52:Core/Src/BNO055.c **** 
 2145              		.loc 1 52 10 is_stmt 0 view .LVU634
 2146 00f0 6423     		movs	r3, #100
 2147 00f2 0093     		str	r3, [sp]
 2148 00f4 0223     		movs	r3, #2
 2149 00f6 03AA     		add	r2, sp, #12
 2150 00f8 5021     		movs	r1, #80
 2151 00fa 0D48     		ldr	r0, .L116+4
 2152 00fc 0068     		ldr	r0, [r0]
 2153 00fe FFF7FEFF 		bl	HAL_I2C_Master_Transmit
 2154              	.LVL192:
  54:Core/Src/BNO055.c **** 
 2155              		.loc 1 54 2 is_stmt 1 view .LVU635
  54:Core/Src/BNO055.c **** 
ARM GAS  C:\Users\baske\AppData\Local\Temp\ccVCqxIy.s 			page 53


 2156              		.loc 1 54 2 is_stmt 0 view .LVU636
 2157              	.LBE237:
 2158              	.LBE236:
  88:Core/Src/BNO055.c **** 		currState->currentPage = newPage;
 2159              		.loc 1 88 3 is_stmt 1 view .LVU637
 2160              	.LBB238:
 2161              	.LBI238:
  61:Core/Src/BNO055.c **** 	if(error != HAL_OK){
 2162              		.loc 1 61 20 view .LVU638
 2163              	.LBB239:
  62:Core/Src/BNO055.c **** 		HAL_GPIO_WritePin(LD2_GPIO_Port, LD2_Pin, GPIO_PIN_SET);
 2164              		.loc 1 62 2 view .LVU639
  62:Core/Src/BNO055.c **** 		HAL_GPIO_WritePin(LD2_GPIO_Port, LD2_Pin, GPIO_PIN_SET);
 2165              		.loc 1 62 4 is_stmt 0 view .LVU640
 2166 0102 30B9     		cbnz	r0, .L115
 2167              	.LVL193:
  62:Core/Src/BNO055.c **** 		HAL_GPIO_WritePin(LD2_GPIO_Port, LD2_Pin, GPIO_PIN_SET);
 2168              		.loc 1 62 4 view .LVU641
 2169              	.LBE239:
 2170              	.LBE238:
  89:Core/Src/BNO055.c **** 		HAL_Delay(20);
 2171              		.loc 1 89 3 is_stmt 1 view .LVU642
  89:Core/Src/BNO055.c **** 		HAL_Delay(20);
 2172              		.loc 1 89 26 is_stmt 0 view .LVU643
 2173 0104 094B     		ldr	r3, .L116
 2174 0106 0022     		movs	r2, #0
 2175 0108 5A70     		strb	r2, [r3, #1]
  90:Core/Src/BNO055.c **** 	}
 2176              		.loc 1 90 3 is_stmt 1 view .LVU644
 2177 010a 1420     		movs	r0, #20
 2178              	.LVL194:
  90:Core/Src/BNO055.c **** 	}
 2179              		.loc 1 90 3 is_stmt 0 view .LVU645
 2180 010c FFF7FEFF 		bl	HAL_Delay
 2181              	.LVL195:
 2182 0110 81E7     		b	.L105
 2183              	.LVL196:
 2184              	.L115:
 2185              	.LBB241:
 2186              	.LBB240:
  63:Core/Src/BNO055.c **** 		while(1);
 2187              		.loc 1 63 3 is_stmt 1 view .LVU646
 2188 0112 0122     		movs	r2, #1
 2189 0114 2021     		movs	r1, #32
 2190 0116 0848     		ldr	r0, .L116+12
 2191              	.LVL197:
  63:Core/Src/BNO055.c **** 		while(1);
 2192              		.loc 1 63 3 is_stmt 0 view .LVU647
 2193 0118 FFF7FEFF 		bl	HAL_GPIO_WritePin
 2194              	.LVL198:
 2195              	.L107:
  64:Core/Src/BNO055.c **** 	}
 2196              		.loc 1 64 3 is_stmt 1 view .LVU648
  64:Core/Src/BNO055.c **** 	}
 2197              		.loc 1 64 8 view .LVU649
 2198 011c FEE7     		b	.L107
 2199              	.LVL199:
ARM GAS  C:\Users\baske\AppData\Local\Temp\ccVCqxIy.s 			page 54


 2200              	.L113:
  64:Core/Src/BNO055.c **** 	}
 2201              		.loc 1 64 8 is_stmt 0 view .LVU650
 2202              	.LBE240:
 2203              	.LBE241:
 2204              	.LBE242:
 2205              	.LBE248:
 2206              	.LBB249:
 2207              	.LBB247:
  63:Core/Src/BNO055.c **** 		while(1);
 2208              		.loc 1 63 3 is_stmt 1 view .LVU651
 2209 011e 0122     		movs	r2, #1
 2210 0120 2021     		movs	r1, #32
 2211 0122 0548     		ldr	r0, .L116+12
 2212 0124 FFF7FEFF 		bl	HAL_GPIO_WritePin
 2213              	.LVL200:
 2214              	.L109:
  64:Core/Src/BNO055.c **** 	}
 2215              		.loc 1 64 3 view .LVU652
  64:Core/Src/BNO055.c **** 	}
 2216              		.loc 1 64 8 view .LVU653
 2217 0128 FEE7     		b	.L109
 2218              	.L117:
 2219 012a 00BF     		.align	2
 2220              	.L116:
 2221 012c 00000000 		.word	.LANCHOR1
 2222 0130 00000000 		.word	.LANCHOR0
 2223 0134 0000803D 		.word	1031798784
 2224 0138 00000240 		.word	1073872896
 2225              	.LBE247:
 2226              	.LBE249:
 2227              		.cfi_endproc
 2228              	.LFE141:
 2230              		.section	.text.BNO055_Get_Mag,"ax",%progbits
 2231              		.align	1
 2232              		.global	BNO055_Get_Mag
 2233              		.syntax unified
 2234              		.thumb
 2235              		.thumb_func
 2237              	BNO055_Get_Mag:
 2238              	.LVL201:
 2239              	.LFB142:
 301:Core/Src/BNO055.c **** 
 302:Core/Src/BNO055.c **** BNO055_ERROR BNO055_Get_Mag(BNO055_Axis_Vec_t* vec){
 2240              		.loc 1 302 52 view -0
 2241              		.cfi_startproc
 2242              		@ args = 0, pretend = 0, frame = 16
 2243              		@ frame_needed = 0, uses_anonymous_args = 0
 2244              		.loc 1 302 52 is_stmt 0 view .LVU655
 2245 0000 F0B5     		push	{r4, r5, r6, r7, lr}
 2246              		.cfi_def_cfa_offset 20
 2247              		.cfi_offset 4, -20
 2248              		.cfi_offset 5, -16
 2249              		.cfi_offset 6, -12
 2250              		.cfi_offset 7, -8
 2251              		.cfi_offset 14, -4
 2252 0002 87B0     		sub	sp, sp, #28
ARM GAS  C:\Users\baske\AppData\Local\Temp\ccVCqxIy.s 			page 55


 2253              		.cfi_def_cfa_offset 48
 2254 0004 0446     		mov	r4, r0
 303:Core/Src/BNO055.c **** 
 304:Core/Src/BNO055.c **** 	HAL_StatusTypeDef error;
 2255              		.loc 1 304 2 is_stmt 1 view .LVU656
 305:Core/Src/BNO055.c **** 	uint8_t tempBuf[6];
 2256              		.loc 1 305 2 view .LVU657
 306:Core/Src/BNO055.c **** 
 307:Core/Src/BNO055.c **** 	/* Makes sure BNO055 is in NDOF mode and Page 0 */
 308:Core/Src/BNO055.c **** 	BNO055_STATUS_CHECK_AND_SET(&state, NDOF, BNO055_PAGE_0);
 2257              		.loc 1 308 2 view .LVU658
 2258              	.LVL202:
 2259              	.LBB264:
 2260              	.LBI264:
  73:Core/Src/BNO055.c **** 
 2261              		.loc 1 73 20 view .LVU659
 2262              	.LBB265:
  75:Core/Src/BNO055.c **** 
 2263              		.loc 1 75 2 view .LVU660
  78:Core/Src/BNO055.c **** 		error = BNO055_Write(BNO055_OPR_MODE, newMode);
 2264              		.loc 1 78 2 view .LVU661
  78:Core/Src/BNO055.c **** 		error = BNO055_Write(BNO055_OPR_MODE, newMode);
 2265              		.loc 1 78 14 is_stmt 0 view .LVU662
 2266 0006 494B     		ldr	r3, .L133
 2267 0008 1B78     		ldrb	r3, [r3]	@ zero_extendqisi2
  78:Core/Src/BNO055.c **** 		error = BNO055_Write(BNO055_OPR_MODE, newMode);
 2268              		.loc 1 78 4 view .LVU663
 2269 000a 0C2B     		cmp	r3, #12
 2270 000c 4DD1     		bne	.L128
 2271              	.LVL203:
 2272              	.L119:
  86:Core/Src/BNO055.c **** 		error = BNO055_Write(BNO055_PAGE_ID, newPage);
 2273              		.loc 1 86 2 is_stmt 1 view .LVU664
  86:Core/Src/BNO055.c **** 		error = BNO055_Write(BNO055_PAGE_ID, newPage);
 2274              		.loc 1 86 14 is_stmt 0 view .LVU665
 2275 000e 474B     		ldr	r3, .L133
 2276 0010 5B78     		ldrb	r3, [r3, #1]	@ zero_extendqisi2
  86:Core/Src/BNO055.c **** 		error = BNO055_Write(BNO055_PAGE_ID, newPage);
 2277              		.loc 1 86 4 view .LVU666
 2278 0012 002B     		cmp	r3, #0
 2279 0014 66D1     		bne	.L129
 2280              	.L122:
 2281              	.LVL204:
  86:Core/Src/BNO055.c **** 		error = BNO055_Write(BNO055_PAGE_ID, newPage);
 2282              		.loc 1 86 4 view .LVU667
 2283              	.LBE265:
 2284              	.LBE264:
 309:Core/Src/BNO055.c **** 
 310:Core/Src/BNO055.c **** 	/* Grab Mag LSB and MSB data of all axes */
 311:Core/Src/BNO055.c **** 	error = BNO055_Read(BNO055_MAG_DATA_X_LSB, tempBuf, 6);
 2285              		.loc 1 311 2 is_stmt 1 view .LVU668
 2286 0016 0E23     		movs	r3, #14
 2287 0018 8DF80C30 		strb	r3, [sp, #12]
 2288              	.LVL205:
 2289              	.LBB279:
 2290              	.LBI279:
  33:Core/Src/BNO055.c **** 
ARM GAS  C:\Users\baske\AppData\Local\Temp\ccVCqxIy.s 			page 56


 2291              		.loc 1 33 33 view .LVU669
 2292              	.LBB280:
  35:Core/Src/BNO055.c **** 
 2293              		.loc 1 35 2 view .LVU670
  37:Core/Src/BNO055.c **** 	error |= HAL_I2C_Master_Receive(BNO055_I2C, BNO055_I2C_ADDR<<1, buf, len, BNO055_READ_TIMEOUT);
 2294              		.loc 1 37 2 view .LVU671
  37:Core/Src/BNO055.c **** 	error |= HAL_I2C_Master_Receive(BNO055_I2C, BNO055_I2C_ADDR<<1, buf, len, BNO055_READ_TIMEOUT);
 2295              		.loc 1 37 10 is_stmt 0 view .LVU672
 2296 001c 444E     		ldr	r6, .L133+4
 2297 001e 6427     		movs	r7, #100
 2298 0020 0097     		str	r7, [sp]
 2299 0022 0123     		movs	r3, #1
 2300              	.LVL206:
  37:Core/Src/BNO055.c **** 	error |= HAL_I2C_Master_Receive(BNO055_I2C, BNO055_I2C_ADDR<<1, buf, len, BNO055_READ_TIMEOUT);
 2301              		.loc 1 37 10 view .LVU673
 2302 0024 03AA     		add	r2, sp, #12
 2303              	.LVL207:
  37:Core/Src/BNO055.c **** 	error |= HAL_I2C_Master_Receive(BNO055_I2C, BNO055_I2C_ADDR<<1, buf, len, BNO055_READ_TIMEOUT);
 2304              		.loc 1 37 10 view .LVU674
 2305 0026 5021     		movs	r1, #80
 2306 0028 3068     		ldr	r0, [r6]
 2307 002a FFF7FEFF 		bl	HAL_I2C_Master_Transmit
 2308              	.LVL208:
  37:Core/Src/BNO055.c **** 	error |= HAL_I2C_Master_Receive(BNO055_I2C, BNO055_I2C_ADDR<<1, buf, len, BNO055_READ_TIMEOUT);
 2309              		.loc 1 37 10 view .LVU675
 2310 002e 0546     		mov	r5, r0
 2311              	.LVL209:
  38:Core/Src/BNO055.c **** 
 2312              		.loc 1 38 2 is_stmt 1 view .LVU676
  38:Core/Src/BNO055.c **** 
 2313              		.loc 1 38 11 is_stmt 0 view .LVU677
 2314 0030 0097     		str	r7, [sp]
 2315 0032 0623     		movs	r3, #6
 2316 0034 04AA     		add	r2, sp, #16
 2317              	.LVL210:
  38:Core/Src/BNO055.c **** 
 2318              		.loc 1 38 11 view .LVU678
 2319 0036 5021     		movs	r1, #80
 2320 0038 3068     		ldr	r0, [r6]
 2321 003a FFF7FEFF 		bl	HAL_I2C_Master_Receive
 2322              	.LVL211:
  38:Core/Src/BNO055.c **** 
 2323              		.loc 1 38 8 view .LVU679
 2324 003e 0543     		orrs	r5, r5, r0
 2325              	.LVL212:
  40:Core/Src/BNO055.c **** 
 2326              		.loc 1 40 2 is_stmt 1 view .LVU680
  40:Core/Src/BNO055.c **** 
 2327              		.loc 1 40 2 is_stmt 0 view .LVU681
 2328              	.LBE280:
 2329              	.LBE279:
 312:Core/Src/BNO055.c **** 	BNO055_ERROR_HANDLE(error);
 2330              		.loc 1 312 2 is_stmt 1 view .LVU682
 2331              	.LBB281:
 2332              	.LBI281:
  61:Core/Src/BNO055.c **** 	if(error != HAL_OK){
 2333              		.loc 1 61 20 view .LVU683
ARM GAS  C:\Users\baske\AppData\Local\Temp\ccVCqxIy.s 			page 57


 2334              	.LBB282:
  62:Core/Src/BNO055.c **** 		HAL_GPIO_WritePin(LD2_GPIO_Port, LD2_Pin, GPIO_PIN_SET);
 2335              		.loc 1 62 2 view .LVU684
  62:Core/Src/BNO055.c **** 		HAL_GPIO_WritePin(LD2_GPIO_Port, LD2_Pin, GPIO_PIN_SET);
 2336              		.loc 1 62 4 is_stmt 0 view .LVU685
 2337 0040 15F0FF0F 		tst	r5, #255
 2338 0044 6BD1     		bne	.L130
 2339              	.LVL213:
  62:Core/Src/BNO055.c **** 		HAL_GPIO_WritePin(LD2_GPIO_Port, LD2_Pin, GPIO_PIN_SET);
 2340              		.loc 1 62 4 view .LVU686
 2341              	.LBE282:
 2342              	.LBE281:
 313:Core/Src/BNO055.c **** 
 314:Core/Src/BNO055.c **** 	/* Parse Data into Vector Struct */
 315:Core/Src/BNO055.c **** 	vec->x = (int16_t)((tempBuf[1]<<8) | tempBuf[0]) / BNO055_MAG_SCALE;
 2343              		.loc 1 315 2 is_stmt 1 view .LVU687
 2344              		.loc 1 315 29 is_stmt 0 view .LVU688
 2345 0046 9DF81120 		ldrb	r2, [sp, #17]	@ zero_extendqisi2
 2346              		.loc 1 315 46 view .LVU689
 2347 004a 9DF81030 		ldrb	r3, [sp, #16]	@ zero_extendqisi2
 2348              		.loc 1 315 11 view .LVU690
 2349 004e 43EA0223 		orr	r3, r3, r2, lsl #8
 2350 0052 1BB2     		sxth	r3, r3
 2351 0054 07EE903A 		vmov	s15, r3	@ int
 2352              		.loc 1 315 51 view .LVU691
 2353 0058 F8EEE77A 		vcvt.f32.s32	s15, s15
 2354 005c 9FED357A 		vldr.32	s14, .L133+8
 2355 0060 67EE877A 		vmul.f32	s15, s15, s14
 2356              		.loc 1 315 9 view .LVU692
 2357 0064 C4ED007A 		vstr.32	s15, [r4]
 316:Core/Src/BNO055.c **** 	vec->y = (int16_t)((tempBuf[3]<<8) | tempBuf[2]) / BNO055_MAG_SCALE;
 2358              		.loc 1 316 2 is_stmt 1 view .LVU693
 2359              		.loc 1 316 29 is_stmt 0 view .LVU694
 2360 0068 9DF81320 		ldrb	r2, [sp, #19]	@ zero_extendqisi2
 2361              		.loc 1 316 46 view .LVU695
 2362 006c 9DF81230 		ldrb	r3, [sp, #18]	@ zero_extendqisi2
 2363              		.loc 1 316 11 view .LVU696
 2364 0070 43EA0223 		orr	r3, r3, r2, lsl #8
 2365 0074 1BB2     		sxth	r3, r3
 2366 0076 07EE903A 		vmov	s15, r3	@ int
 2367              		.loc 1 316 51 view .LVU697
 2368 007a F8EEE77A 		vcvt.f32.s32	s15, s15
 2369 007e 67EE877A 		vmul.f32	s15, s15, s14
 2370              		.loc 1 316 9 view .LVU698
 2371 0082 C4ED017A 		vstr.32	s15, [r4, #4]
 317:Core/Src/BNO055.c **** 	vec->z = (int16_t)((tempBuf[5]<<8) | tempBuf[4]) / BNO055_MAG_SCALE;
 2372              		.loc 1 317 2 is_stmt 1 view .LVU699
 2373              		.loc 1 317 29 is_stmt 0 view .LVU700
 2374 0086 9DF81520 		ldrb	r2, [sp, #21]	@ zero_extendqisi2
 2375              		.loc 1 317 46 view .LVU701
 2376 008a 9DF81430 		ldrb	r3, [sp, #20]	@ zero_extendqisi2
 2377              		.loc 1 317 11 view .LVU702
 2378 008e 43EA0223 		orr	r3, r3, r2, lsl #8
 2379 0092 1BB2     		sxth	r3, r3
 2380 0094 07EE903A 		vmov	s15, r3	@ int
 2381              		.loc 1 317 51 view .LVU703
 2382 0098 F8EEE77A 		vcvt.f32.s32	s15, s15
ARM GAS  C:\Users\baske\AppData\Local\Temp\ccVCqxIy.s 			page 58


 2383 009c 67EE877A 		vmul.f32	s15, s15, s14
 2384              		.loc 1 317 9 view .LVU704
 2385 00a0 C4ED027A 		vstr.32	s15, [r4, #8]
 318:Core/Src/BNO055.c **** 
 319:Core/Src/BNO055.c **** 	return BNO055_SUCCESS;
 2386              		.loc 1 319 2 is_stmt 1 view .LVU705
 320:Core/Src/BNO055.c **** 
 321:Core/Src/BNO055.c **** }
 2387              		.loc 1 321 1 is_stmt 0 view .LVU706
 2388 00a4 0020     		movs	r0, #0
 2389 00a6 07B0     		add	sp, sp, #28
 2390              		.cfi_remember_state
 2391              		.cfi_def_cfa_offset 20
 2392              		@ sp needed
 2393 00a8 F0BD     		pop	{r4, r5, r6, r7, pc}
 2394              	.LVL214:
 2395              	.L128:
 2396              		.cfi_restore_state
 2397              	.LBB284:
 2398              	.LBB278:
  79:Core/Src/BNO055.c **** 		BNO055_ERROR_HANDLE(error);
 2399              		.loc 1 79 3 is_stmt 1 view .LVU707
 2400              	.LBB266:
 2401              	.LBI266:
  47:Core/Src/BNO055.c **** 
 2402              		.loc 1 47 33 view .LVU708
 2403              	.LBB267:
  49:Core/Src/BNO055.c **** 	uint8_t transmitBuf[2] = {reg, data};
 2404              		.loc 1 49 2 view .LVU709
  50:Core/Src/BNO055.c **** 
 2405              		.loc 1 50 2 view .LVU710
  50:Core/Src/BNO055.c **** 
 2406              		.loc 1 50 10 is_stmt 0 view .LVU711
 2407 00aa 3D23     		movs	r3, #61
 2408 00ac 8DF80C30 		strb	r3, [sp, #12]
 2409 00b0 0C23     		movs	r3, #12
 2410 00b2 8DF80D30 		strb	r3, [sp, #13]
  52:Core/Src/BNO055.c **** 
 2411              		.loc 1 52 2 is_stmt 1 view .LVU712
  52:Core/Src/BNO055.c **** 
 2412              		.loc 1 52 10 is_stmt 0 view .LVU713
 2413 00b6 6423     		movs	r3, #100
 2414 00b8 0093     		str	r3, [sp]
 2415 00ba 0223     		movs	r3, #2
 2416 00bc 03AA     		add	r2, sp, #12
 2417 00be 5021     		movs	r1, #80
 2418 00c0 1B48     		ldr	r0, .L133+4
 2419              	.LVL215:
  52:Core/Src/BNO055.c **** 
 2420              		.loc 1 52 10 view .LVU714
 2421 00c2 0068     		ldr	r0, [r0]
 2422 00c4 FFF7FEFF 		bl	HAL_I2C_Master_Transmit
 2423              	.LVL216:
  54:Core/Src/BNO055.c **** 
 2424              		.loc 1 54 2 is_stmt 1 view .LVU715
  54:Core/Src/BNO055.c **** 
 2425              		.loc 1 54 2 is_stmt 0 view .LVU716
ARM GAS  C:\Users\baske\AppData\Local\Temp\ccVCqxIy.s 			page 59


 2426              	.LBE267:
 2427              	.LBE266:
  80:Core/Src/BNO055.c **** 		currState->currentMode = newMode;
 2428              		.loc 1 80 3 is_stmt 1 view .LVU717
 2429              	.LBB268:
 2430              	.LBI268:
  61:Core/Src/BNO055.c **** 	if(error != HAL_OK){
 2431              		.loc 1 61 20 view .LVU718
 2432              	.LBB269:
  62:Core/Src/BNO055.c **** 		HAL_GPIO_WritePin(LD2_GPIO_Port, LD2_Pin, GPIO_PIN_SET);
 2433              		.loc 1 62 2 view .LVU719
  62:Core/Src/BNO055.c **** 		HAL_GPIO_WritePin(LD2_GPIO_Port, LD2_Pin, GPIO_PIN_SET);
 2434              		.loc 1 62 4 is_stmt 0 view .LVU720
 2435 00c8 30B9     		cbnz	r0, .L131
 2436              	.LVL217:
  62:Core/Src/BNO055.c **** 		HAL_GPIO_WritePin(LD2_GPIO_Port, LD2_Pin, GPIO_PIN_SET);
 2437              		.loc 1 62 4 view .LVU721
 2438              	.LBE269:
 2439              	.LBE268:
  81:Core/Src/BNO055.c **** 		HAL_Delay(20);
 2440              		.loc 1 81 3 is_stmt 1 view .LVU722
  81:Core/Src/BNO055.c **** 		HAL_Delay(20);
 2441              		.loc 1 81 26 is_stmt 0 view .LVU723
 2442 00ca 184B     		ldr	r3, .L133
 2443 00cc 0C22     		movs	r2, #12
 2444 00ce 1A70     		strb	r2, [r3]
  82:Core/Src/BNO055.c **** 	}
 2445              		.loc 1 82 3 is_stmt 1 view .LVU724
 2446 00d0 1420     		movs	r0, #20
 2447              	.LVL218:
  82:Core/Src/BNO055.c **** 	}
 2448              		.loc 1 82 3 is_stmt 0 view .LVU725
 2449 00d2 FFF7FEFF 		bl	HAL_Delay
 2450              	.LVL219:
 2451 00d6 9AE7     		b	.L119
 2452              	.LVL220:
 2453              	.L131:
 2454              	.LBB271:
 2455              	.LBB270:
  63:Core/Src/BNO055.c **** 		while(1);
 2456              		.loc 1 63 3 is_stmt 1 view .LVU726
 2457 00d8 0122     		movs	r2, #1
 2458 00da 2021     		movs	r1, #32
 2459 00dc 1648     		ldr	r0, .L133+12
 2460              	.LVL221:
  63:Core/Src/BNO055.c **** 		while(1);
 2461              		.loc 1 63 3 is_stmt 0 view .LVU727
 2462 00de FFF7FEFF 		bl	HAL_GPIO_WritePin
 2463              	.LVL222:
 2464              	.L121:
  64:Core/Src/BNO055.c **** 	}
 2465              		.loc 1 64 3 is_stmt 1 view .LVU728
  64:Core/Src/BNO055.c **** 	}
 2466              		.loc 1 64 8 view .LVU729
 2467 00e2 FEE7     		b	.L121
 2468              	.L129:
  64:Core/Src/BNO055.c **** 	}
ARM GAS  C:\Users\baske\AppData\Local\Temp\ccVCqxIy.s 			page 60


 2469              		.loc 1 64 8 is_stmt 0 view .LVU730
 2470              	.LBE270:
 2471              	.LBE271:
  87:Core/Src/BNO055.c **** 		BNO055_ERROR_HANDLE(error);
 2472              		.loc 1 87 3 is_stmt 1 view .LVU731
 2473              	.LVL223:
 2474              	.LBB272:
 2475              	.LBI272:
  47:Core/Src/BNO055.c **** 
 2476              		.loc 1 47 33 view .LVU732
 2477              	.LBB273:
  49:Core/Src/BNO055.c **** 	uint8_t transmitBuf[2] = {reg, data};
 2478              		.loc 1 49 2 view .LVU733
  50:Core/Src/BNO055.c **** 
 2479              		.loc 1 50 2 view .LVU734
  50:Core/Src/BNO055.c **** 
 2480              		.loc 1 50 10 is_stmt 0 view .LVU735
 2481 00e4 0723     		movs	r3, #7
 2482 00e6 8DF80C30 		strb	r3, [sp, #12]
 2483 00ea 0023     		movs	r3, #0
 2484 00ec 8DF80D30 		strb	r3, [sp, #13]
  52:Core/Src/BNO055.c **** 
 2485              		.loc 1 52 2 is_stmt 1 view .LVU736
  52:Core/Src/BNO055.c **** 
 2486              		.loc 1 52 10 is_stmt 0 view .LVU737
 2487 00f0 6423     		movs	r3, #100
 2488 00f2 0093     		str	r3, [sp]
 2489 00f4 0223     		movs	r3, #2
 2490 00f6 03AA     		add	r2, sp, #12
 2491 00f8 5021     		movs	r1, #80
 2492 00fa 0D48     		ldr	r0, .L133+4
 2493 00fc 0068     		ldr	r0, [r0]
 2494 00fe FFF7FEFF 		bl	HAL_I2C_Master_Transmit
 2495              	.LVL224:
  54:Core/Src/BNO055.c **** 
 2496              		.loc 1 54 2 is_stmt 1 view .LVU738
  54:Core/Src/BNO055.c **** 
 2497              		.loc 1 54 2 is_stmt 0 view .LVU739
 2498              	.LBE273:
 2499              	.LBE272:
  88:Core/Src/BNO055.c **** 		currState->currentPage = newPage;
 2500              		.loc 1 88 3 is_stmt 1 view .LVU740
 2501              	.LBB274:
 2502              	.LBI274:
  61:Core/Src/BNO055.c **** 	if(error != HAL_OK){
 2503              		.loc 1 61 20 view .LVU741
 2504              	.LBB275:
  62:Core/Src/BNO055.c **** 		HAL_GPIO_WritePin(LD2_GPIO_Port, LD2_Pin, GPIO_PIN_SET);
 2505              		.loc 1 62 2 view .LVU742
  62:Core/Src/BNO055.c **** 		HAL_GPIO_WritePin(LD2_GPIO_Port, LD2_Pin, GPIO_PIN_SET);
 2506              		.loc 1 62 4 is_stmt 0 view .LVU743
 2507 0102 30B9     		cbnz	r0, .L132
 2508              	.LVL225:
  62:Core/Src/BNO055.c **** 		HAL_GPIO_WritePin(LD2_GPIO_Port, LD2_Pin, GPIO_PIN_SET);
 2509              		.loc 1 62 4 view .LVU744
 2510              	.LBE275:
 2511              	.LBE274:
ARM GAS  C:\Users\baske\AppData\Local\Temp\ccVCqxIy.s 			page 61


  89:Core/Src/BNO055.c **** 		HAL_Delay(20);
 2512              		.loc 1 89 3 is_stmt 1 view .LVU745
  89:Core/Src/BNO055.c **** 		HAL_Delay(20);
 2513              		.loc 1 89 26 is_stmt 0 view .LVU746
 2514 0104 094B     		ldr	r3, .L133
 2515 0106 0022     		movs	r2, #0
 2516 0108 5A70     		strb	r2, [r3, #1]
  90:Core/Src/BNO055.c **** 	}
 2517              		.loc 1 90 3 is_stmt 1 view .LVU747
 2518 010a 1420     		movs	r0, #20
 2519              	.LVL226:
  90:Core/Src/BNO055.c **** 	}
 2520              		.loc 1 90 3 is_stmt 0 view .LVU748
 2521 010c FFF7FEFF 		bl	HAL_Delay
 2522              	.LVL227:
 2523 0110 81E7     		b	.L122
 2524              	.LVL228:
 2525              	.L132:
 2526              	.LBB277:
 2527              	.LBB276:
  63:Core/Src/BNO055.c **** 		while(1);
 2528              		.loc 1 63 3 is_stmt 1 view .LVU749
 2529 0112 0122     		movs	r2, #1
 2530 0114 2021     		movs	r1, #32
 2531 0116 0848     		ldr	r0, .L133+12
 2532              	.LVL229:
  63:Core/Src/BNO055.c **** 		while(1);
 2533              		.loc 1 63 3 is_stmt 0 view .LVU750
 2534 0118 FFF7FEFF 		bl	HAL_GPIO_WritePin
 2535              	.LVL230:
 2536              	.L124:
  64:Core/Src/BNO055.c **** 	}
 2537              		.loc 1 64 3 is_stmt 1 view .LVU751
  64:Core/Src/BNO055.c **** 	}
 2538              		.loc 1 64 8 view .LVU752
 2539 011c FEE7     		b	.L124
 2540              	.LVL231:
 2541              	.L130:
  64:Core/Src/BNO055.c **** 	}
 2542              		.loc 1 64 8 is_stmt 0 view .LVU753
 2543              	.LBE276:
 2544              	.LBE277:
 2545              	.LBE278:
 2546              	.LBE284:
 2547              	.LBB285:
 2548              	.LBB283:
  63:Core/Src/BNO055.c **** 		while(1);
 2549              		.loc 1 63 3 is_stmt 1 view .LVU754
 2550 011e 0122     		movs	r2, #1
 2551 0120 2021     		movs	r1, #32
 2552 0122 0548     		ldr	r0, .L133+12
 2553 0124 FFF7FEFF 		bl	HAL_GPIO_WritePin
 2554              	.LVL232:
 2555              	.L126:
  64:Core/Src/BNO055.c **** 	}
 2556              		.loc 1 64 3 view .LVU755
  64:Core/Src/BNO055.c **** 	}
ARM GAS  C:\Users\baske\AppData\Local\Temp\ccVCqxIy.s 			page 62


 2557              		.loc 1 64 8 view .LVU756
 2558 0128 FEE7     		b	.L126
 2559              	.L134:
 2560 012a 00BF     		.align	2
 2561              	.L133:
 2562 012c 00000000 		.word	.LANCHOR1
 2563 0130 00000000 		.word	.LANCHOR0
 2564 0134 0000803D 		.word	1031798784
 2565 0138 00000240 		.word	1073872896
 2566              	.LBE283:
 2567              	.LBE285:
 2568              		.cfi_endproc
 2569              	.LFE142:
 2571              		.section	.text.BNO055_Get_Linear_Accel,"ax",%progbits
 2572              		.align	1
 2573              		.global	BNO055_Get_Linear_Accel
 2574              		.syntax unified
 2575              		.thumb
 2576              		.thumb_func
 2578              	BNO055_Get_Linear_Accel:
 2579              	.LVL233:
 2580              	.LFB143:
 322:Core/Src/BNO055.c **** 
 323:Core/Src/BNO055.c **** BNO055_ERROR BNO055_Get_Linear_Accel(BNO055_Axis_Vec_t* vec){
 2581              		.loc 1 323 61 view -0
 2582              		.cfi_startproc
 2583              		@ args = 0, pretend = 0, frame = 16
 2584              		@ frame_needed = 0, uses_anonymous_args = 0
 2585              		.loc 1 323 61 is_stmt 0 view .LVU758
 2586 0000 F0B5     		push	{r4, r5, r6, r7, lr}
 2587              		.cfi_def_cfa_offset 20
 2588              		.cfi_offset 4, -20
 2589              		.cfi_offset 5, -16
 2590              		.cfi_offset 6, -12
 2591              		.cfi_offset 7, -8
 2592              		.cfi_offset 14, -4
 2593 0002 87B0     		sub	sp, sp, #28
 2594              		.cfi_def_cfa_offset 48
 2595 0004 0446     		mov	r4, r0
 324:Core/Src/BNO055.c **** 
 325:Core/Src/BNO055.c **** 	HAL_StatusTypeDef error;
 2596              		.loc 1 325 2 is_stmt 1 view .LVU759
 326:Core/Src/BNO055.c **** 	uint8_t tempBuf[6];
 2597              		.loc 1 326 2 view .LVU760
 327:Core/Src/BNO055.c **** 
 328:Core/Src/BNO055.c **** 	/* Makes sure BNO055 is in NDOF mode and Page 0 */
 329:Core/Src/BNO055.c **** 	BNO055_STATUS_CHECK_AND_SET(&state, NDOF, BNO055_PAGE_0);
 2598              		.loc 1 329 2 view .LVU761
 2599              	.LVL234:
 2600              	.LBB300:
 2601              	.LBI300:
  73:Core/Src/BNO055.c **** 
 2602              		.loc 1 73 20 view .LVU762
 2603              	.LBB301:
  75:Core/Src/BNO055.c **** 
 2604              		.loc 1 75 2 view .LVU763
  78:Core/Src/BNO055.c **** 		error = BNO055_Write(BNO055_OPR_MODE, newMode);
ARM GAS  C:\Users\baske\AppData\Local\Temp\ccVCqxIy.s 			page 63


 2605              		.loc 1 78 2 view .LVU764
  78:Core/Src/BNO055.c **** 		error = BNO055_Write(BNO055_OPR_MODE, newMode);
 2606              		.loc 1 78 14 is_stmt 0 view .LVU765
 2607 0006 494B     		ldr	r3, .L150
 2608 0008 1B78     		ldrb	r3, [r3]	@ zero_extendqisi2
  78:Core/Src/BNO055.c **** 		error = BNO055_Write(BNO055_OPR_MODE, newMode);
 2609              		.loc 1 78 4 view .LVU766
 2610 000a 0C2B     		cmp	r3, #12
 2611 000c 4DD1     		bne	.L145
 2612              	.LVL235:
 2613              	.L136:
  86:Core/Src/BNO055.c **** 		error = BNO055_Write(BNO055_PAGE_ID, newPage);
 2614              		.loc 1 86 2 is_stmt 1 view .LVU767
  86:Core/Src/BNO055.c **** 		error = BNO055_Write(BNO055_PAGE_ID, newPage);
 2615              		.loc 1 86 14 is_stmt 0 view .LVU768
 2616 000e 474B     		ldr	r3, .L150
 2617 0010 5B78     		ldrb	r3, [r3, #1]	@ zero_extendqisi2
  86:Core/Src/BNO055.c **** 		error = BNO055_Write(BNO055_PAGE_ID, newPage);
 2618              		.loc 1 86 4 view .LVU769
 2619 0012 002B     		cmp	r3, #0
 2620 0014 66D1     		bne	.L146
 2621              	.L139:
 2622              	.LVL236:
  86:Core/Src/BNO055.c **** 		error = BNO055_Write(BNO055_PAGE_ID, newPage);
 2623              		.loc 1 86 4 view .LVU770
 2624              	.LBE301:
 2625              	.LBE300:
 330:Core/Src/BNO055.c **** 
 331:Core/Src/BNO055.c **** 	/* Grab Linear Acceleration LSB and MSB data of all axes */
 332:Core/Src/BNO055.c **** 	error = BNO055_Read(BNO055_LIA_DATA_X_LSB, tempBuf, 6);
 2626              		.loc 1 332 2 is_stmt 1 view .LVU771
 2627 0016 2823     		movs	r3, #40
 2628 0018 8DF80C30 		strb	r3, [sp, #12]
 2629              	.LVL237:
 2630              	.LBB315:
 2631              	.LBI315:
  33:Core/Src/BNO055.c **** 
 2632              		.loc 1 33 33 view .LVU772
 2633              	.LBB316:
  35:Core/Src/BNO055.c **** 
 2634              		.loc 1 35 2 view .LVU773
  37:Core/Src/BNO055.c **** 	error |= HAL_I2C_Master_Receive(BNO055_I2C, BNO055_I2C_ADDR<<1, buf, len, BNO055_READ_TIMEOUT);
 2635              		.loc 1 37 2 view .LVU774
  37:Core/Src/BNO055.c **** 	error |= HAL_I2C_Master_Receive(BNO055_I2C, BNO055_I2C_ADDR<<1, buf, len, BNO055_READ_TIMEOUT);
 2636              		.loc 1 37 10 is_stmt 0 view .LVU775
 2637 001c 444E     		ldr	r6, .L150+4
 2638 001e 6427     		movs	r7, #100
 2639 0020 0097     		str	r7, [sp]
 2640 0022 0123     		movs	r3, #1
 2641              	.LVL238:
  37:Core/Src/BNO055.c **** 	error |= HAL_I2C_Master_Receive(BNO055_I2C, BNO055_I2C_ADDR<<1, buf, len, BNO055_READ_TIMEOUT);
 2642              		.loc 1 37 10 view .LVU776
 2643 0024 03AA     		add	r2, sp, #12
 2644              	.LVL239:
  37:Core/Src/BNO055.c **** 	error |= HAL_I2C_Master_Receive(BNO055_I2C, BNO055_I2C_ADDR<<1, buf, len, BNO055_READ_TIMEOUT);
 2645              		.loc 1 37 10 view .LVU777
 2646 0026 5021     		movs	r1, #80
ARM GAS  C:\Users\baske\AppData\Local\Temp\ccVCqxIy.s 			page 64


 2647 0028 3068     		ldr	r0, [r6]
 2648 002a FFF7FEFF 		bl	HAL_I2C_Master_Transmit
 2649              	.LVL240:
  37:Core/Src/BNO055.c **** 	error |= HAL_I2C_Master_Receive(BNO055_I2C, BNO055_I2C_ADDR<<1, buf, len, BNO055_READ_TIMEOUT);
 2650              		.loc 1 37 10 view .LVU778
 2651 002e 0546     		mov	r5, r0
 2652              	.LVL241:
  38:Core/Src/BNO055.c **** 
 2653              		.loc 1 38 2 is_stmt 1 view .LVU779
  38:Core/Src/BNO055.c **** 
 2654              		.loc 1 38 11 is_stmt 0 view .LVU780
 2655 0030 0097     		str	r7, [sp]
 2656 0032 0623     		movs	r3, #6
 2657 0034 04AA     		add	r2, sp, #16
 2658              	.LVL242:
  38:Core/Src/BNO055.c **** 
 2659              		.loc 1 38 11 view .LVU781
 2660 0036 5021     		movs	r1, #80
 2661 0038 3068     		ldr	r0, [r6]
 2662 003a FFF7FEFF 		bl	HAL_I2C_Master_Receive
 2663              	.LVL243:
  38:Core/Src/BNO055.c **** 
 2664              		.loc 1 38 8 view .LVU782
 2665 003e 0543     		orrs	r5, r5, r0
 2666              	.LVL244:
  40:Core/Src/BNO055.c **** 
 2667              		.loc 1 40 2 is_stmt 1 view .LVU783
  40:Core/Src/BNO055.c **** 
 2668              		.loc 1 40 2 is_stmt 0 view .LVU784
 2669              	.LBE316:
 2670              	.LBE315:
 333:Core/Src/BNO055.c **** 	BNO055_ERROR_HANDLE(error);
 2671              		.loc 1 333 2 is_stmt 1 view .LVU785
 2672              	.LBB317:
 2673              	.LBI317:
  61:Core/Src/BNO055.c **** 	if(error != HAL_OK){
 2674              		.loc 1 61 20 view .LVU786
 2675              	.LBB318:
  62:Core/Src/BNO055.c **** 		HAL_GPIO_WritePin(LD2_GPIO_Port, LD2_Pin, GPIO_PIN_SET);
 2676              		.loc 1 62 2 view .LVU787
  62:Core/Src/BNO055.c **** 		HAL_GPIO_WritePin(LD2_GPIO_Port, LD2_Pin, GPIO_PIN_SET);
 2677              		.loc 1 62 4 is_stmt 0 view .LVU788
 2678 0040 15F0FF0F 		tst	r5, #255
 2679 0044 6BD1     		bne	.L147
 2680              	.LVL245:
  62:Core/Src/BNO055.c **** 		HAL_GPIO_WritePin(LD2_GPIO_Port, LD2_Pin, GPIO_PIN_SET);
 2681              		.loc 1 62 4 view .LVU789
 2682              	.LBE318:
 2683              	.LBE317:
 334:Core/Src/BNO055.c **** 
 335:Core/Src/BNO055.c **** 	/* Parse Data into Vector Struct */
 336:Core/Src/BNO055.c **** 	vec->x = (int16_t)((tempBuf[1]<<8) | tempBuf[0]) / BNO055_LIN_ACCEL_MS2_SCALE;
 2684              		.loc 1 336 2 is_stmt 1 view .LVU790
 2685              		.loc 1 336 29 is_stmt 0 view .LVU791
 2686 0046 9DF81120 		ldrb	r2, [sp, #17]	@ zero_extendqisi2
 2687              		.loc 1 336 46 view .LVU792
 2688 004a 9DF81030 		ldrb	r3, [sp, #16]	@ zero_extendqisi2
ARM GAS  C:\Users\baske\AppData\Local\Temp\ccVCqxIy.s 			page 65


 2689              		.loc 1 336 11 view .LVU793
 2690 004e 43EA0223 		orr	r3, r3, r2, lsl #8
 2691 0052 1BB2     		sxth	r3, r3
 2692              		.loc 1 336 51 view .LVU794
 2693 0054 07EE903A 		vmov	s15, r3	@ int
 2694 0058 F8EEE77A 		vcvt.f32.s32	s15, s15
 2695 005c 9FED357A 		vldr.32	s14, .L150+8
 2696 0060 C7EE876A 		vdiv.f32	s13, s15, s14
 2697              		.loc 1 336 9 view .LVU795
 2698 0064 C4ED006A 		vstr.32	s13, [r4]
 337:Core/Src/BNO055.c **** 	vec->y = (int16_t)((tempBuf[3]<<8) | tempBuf[2]) / BNO055_LIN_ACCEL_MS2_SCALE;
 2699              		.loc 1 337 2 is_stmt 1 view .LVU796
 2700              		.loc 1 337 29 is_stmt 0 view .LVU797
 2701 0068 9DF81320 		ldrb	r2, [sp, #19]	@ zero_extendqisi2
 2702              		.loc 1 337 46 view .LVU798
 2703 006c 9DF81230 		ldrb	r3, [sp, #18]	@ zero_extendqisi2
 2704              		.loc 1 337 11 view .LVU799
 2705 0070 43EA0223 		orr	r3, r3, r2, lsl #8
 2706 0074 1BB2     		sxth	r3, r3
 2707              		.loc 1 337 51 view .LVU800
 2708 0076 07EE903A 		vmov	s15, r3	@ int
 2709 007a F8EEE77A 		vcvt.f32.s32	s15, s15
 2710 007e C7EE876A 		vdiv.f32	s13, s15, s14
 2711              		.loc 1 337 9 view .LVU801
 2712 0082 C4ED016A 		vstr.32	s13, [r4, #4]
 338:Core/Src/BNO055.c **** 	vec->z = (int16_t)((tempBuf[5]<<8) | tempBuf[4]) / BNO055_LIN_ACCEL_MS2_SCALE;
 2713              		.loc 1 338 2 is_stmt 1 view .LVU802
 2714              		.loc 1 338 29 is_stmt 0 view .LVU803
 2715 0086 9DF81520 		ldrb	r2, [sp, #21]	@ zero_extendqisi2
 2716              		.loc 1 338 46 view .LVU804
 2717 008a 9DF81430 		ldrb	r3, [sp, #20]	@ zero_extendqisi2
 2718              		.loc 1 338 11 view .LVU805
 2719 008e 43EA0223 		orr	r3, r3, r2, lsl #8
 2720 0092 1BB2     		sxth	r3, r3
 2721              		.loc 1 338 51 view .LVU806
 2722 0094 07EE903A 		vmov	s15, r3	@ int
 2723 0098 F8EEE77A 		vcvt.f32.s32	s15, s15
 2724 009c C7EE876A 		vdiv.f32	s13, s15, s14
 2725              		.loc 1 338 9 view .LVU807
 2726 00a0 C4ED026A 		vstr.32	s13, [r4, #8]
 339:Core/Src/BNO055.c **** 
 340:Core/Src/BNO055.c **** 	return BNO055_SUCCESS;
 2727              		.loc 1 340 2 is_stmt 1 view .LVU808
 341:Core/Src/BNO055.c **** 
 342:Core/Src/BNO055.c **** }
 2728              		.loc 1 342 1 is_stmt 0 view .LVU809
 2729 00a4 0020     		movs	r0, #0
 2730 00a6 07B0     		add	sp, sp, #28
 2731              		.cfi_remember_state
 2732              		.cfi_def_cfa_offset 20
 2733              		@ sp needed
 2734 00a8 F0BD     		pop	{r4, r5, r6, r7, pc}
 2735              	.LVL246:
 2736              	.L145:
 2737              		.cfi_restore_state
 2738              	.LBB320:
 2739              	.LBB314:
ARM GAS  C:\Users\baske\AppData\Local\Temp\ccVCqxIy.s 			page 66


  79:Core/Src/BNO055.c **** 		BNO055_ERROR_HANDLE(error);
 2740              		.loc 1 79 3 is_stmt 1 view .LVU810
 2741              	.LBB302:
 2742              	.LBI302:
  47:Core/Src/BNO055.c **** 
 2743              		.loc 1 47 33 view .LVU811
 2744              	.LBB303:
  49:Core/Src/BNO055.c **** 	uint8_t transmitBuf[2] = {reg, data};
 2745              		.loc 1 49 2 view .LVU812
  50:Core/Src/BNO055.c **** 
 2746              		.loc 1 50 2 view .LVU813
  50:Core/Src/BNO055.c **** 
 2747              		.loc 1 50 10 is_stmt 0 view .LVU814
 2748 00aa 3D23     		movs	r3, #61
 2749 00ac 8DF80C30 		strb	r3, [sp, #12]
 2750 00b0 0C23     		movs	r3, #12
 2751 00b2 8DF80D30 		strb	r3, [sp, #13]
  52:Core/Src/BNO055.c **** 
 2752              		.loc 1 52 2 is_stmt 1 view .LVU815
  52:Core/Src/BNO055.c **** 
 2753              		.loc 1 52 10 is_stmt 0 view .LVU816
 2754 00b6 6423     		movs	r3, #100
 2755 00b8 0093     		str	r3, [sp]
 2756 00ba 0223     		movs	r3, #2
 2757 00bc 03AA     		add	r2, sp, #12
 2758 00be 5021     		movs	r1, #80
 2759 00c0 1B48     		ldr	r0, .L150+4
 2760              	.LVL247:
  52:Core/Src/BNO055.c **** 
 2761              		.loc 1 52 10 view .LVU817
 2762 00c2 0068     		ldr	r0, [r0]
 2763 00c4 FFF7FEFF 		bl	HAL_I2C_Master_Transmit
 2764              	.LVL248:
  54:Core/Src/BNO055.c **** 
 2765              		.loc 1 54 2 is_stmt 1 view .LVU818
  54:Core/Src/BNO055.c **** 
 2766              		.loc 1 54 2 is_stmt 0 view .LVU819
 2767              	.LBE303:
 2768              	.LBE302:
  80:Core/Src/BNO055.c **** 		currState->currentMode = newMode;
 2769              		.loc 1 80 3 is_stmt 1 view .LVU820
 2770              	.LBB304:
 2771              	.LBI304:
  61:Core/Src/BNO055.c **** 	if(error != HAL_OK){
 2772              		.loc 1 61 20 view .LVU821
 2773              	.LBB305:
  62:Core/Src/BNO055.c **** 		HAL_GPIO_WritePin(LD2_GPIO_Port, LD2_Pin, GPIO_PIN_SET);
 2774              		.loc 1 62 2 view .LVU822
  62:Core/Src/BNO055.c **** 		HAL_GPIO_WritePin(LD2_GPIO_Port, LD2_Pin, GPIO_PIN_SET);
 2775              		.loc 1 62 4 is_stmt 0 view .LVU823
 2776 00c8 30B9     		cbnz	r0, .L148
 2777              	.LVL249:
  62:Core/Src/BNO055.c **** 		HAL_GPIO_WritePin(LD2_GPIO_Port, LD2_Pin, GPIO_PIN_SET);
 2778              		.loc 1 62 4 view .LVU824
 2779              	.LBE305:
 2780              	.LBE304:
  81:Core/Src/BNO055.c **** 		HAL_Delay(20);
ARM GAS  C:\Users\baske\AppData\Local\Temp\ccVCqxIy.s 			page 67


 2781              		.loc 1 81 3 is_stmt 1 view .LVU825
  81:Core/Src/BNO055.c **** 		HAL_Delay(20);
 2782              		.loc 1 81 26 is_stmt 0 view .LVU826
 2783 00ca 184B     		ldr	r3, .L150
 2784 00cc 0C22     		movs	r2, #12
 2785 00ce 1A70     		strb	r2, [r3]
  82:Core/Src/BNO055.c **** 	}
 2786              		.loc 1 82 3 is_stmt 1 view .LVU827
 2787 00d0 1420     		movs	r0, #20
 2788              	.LVL250:
  82:Core/Src/BNO055.c **** 	}
 2789              		.loc 1 82 3 is_stmt 0 view .LVU828
 2790 00d2 FFF7FEFF 		bl	HAL_Delay
 2791              	.LVL251:
 2792 00d6 9AE7     		b	.L136
 2793              	.LVL252:
 2794              	.L148:
 2795              	.LBB307:
 2796              	.LBB306:
  63:Core/Src/BNO055.c **** 		while(1);
 2797              		.loc 1 63 3 is_stmt 1 view .LVU829
 2798 00d8 0122     		movs	r2, #1
 2799 00da 2021     		movs	r1, #32
 2800 00dc 1648     		ldr	r0, .L150+12
 2801              	.LVL253:
  63:Core/Src/BNO055.c **** 		while(1);
 2802              		.loc 1 63 3 is_stmt 0 view .LVU830
 2803 00de FFF7FEFF 		bl	HAL_GPIO_WritePin
 2804              	.LVL254:
 2805              	.L138:
  64:Core/Src/BNO055.c **** 	}
 2806              		.loc 1 64 3 is_stmt 1 view .LVU831
  64:Core/Src/BNO055.c **** 	}
 2807              		.loc 1 64 8 view .LVU832
 2808 00e2 FEE7     		b	.L138
 2809              	.L146:
  64:Core/Src/BNO055.c **** 	}
 2810              		.loc 1 64 8 is_stmt 0 view .LVU833
 2811              	.LBE306:
 2812              	.LBE307:
  87:Core/Src/BNO055.c **** 		BNO055_ERROR_HANDLE(error);
 2813              		.loc 1 87 3 is_stmt 1 view .LVU834
 2814              	.LVL255:
 2815              	.LBB308:
 2816              	.LBI308:
  47:Core/Src/BNO055.c **** 
 2817              		.loc 1 47 33 view .LVU835
 2818              	.LBB309:
  49:Core/Src/BNO055.c **** 	uint8_t transmitBuf[2] = {reg, data};
 2819              		.loc 1 49 2 view .LVU836
  50:Core/Src/BNO055.c **** 
 2820              		.loc 1 50 2 view .LVU837
  50:Core/Src/BNO055.c **** 
 2821              		.loc 1 50 10 is_stmt 0 view .LVU838
 2822 00e4 0723     		movs	r3, #7
 2823 00e6 8DF80C30 		strb	r3, [sp, #12]
 2824 00ea 0023     		movs	r3, #0
ARM GAS  C:\Users\baske\AppData\Local\Temp\ccVCqxIy.s 			page 68


 2825 00ec 8DF80D30 		strb	r3, [sp, #13]
  52:Core/Src/BNO055.c **** 
 2826              		.loc 1 52 2 is_stmt 1 view .LVU839
  52:Core/Src/BNO055.c **** 
 2827              		.loc 1 52 10 is_stmt 0 view .LVU840
 2828 00f0 6423     		movs	r3, #100
 2829 00f2 0093     		str	r3, [sp]
 2830 00f4 0223     		movs	r3, #2
 2831 00f6 03AA     		add	r2, sp, #12
 2832 00f8 5021     		movs	r1, #80
 2833 00fa 0D48     		ldr	r0, .L150+4
 2834 00fc 0068     		ldr	r0, [r0]
 2835 00fe FFF7FEFF 		bl	HAL_I2C_Master_Transmit
 2836              	.LVL256:
  54:Core/Src/BNO055.c **** 
 2837              		.loc 1 54 2 is_stmt 1 view .LVU841
  54:Core/Src/BNO055.c **** 
 2838              		.loc 1 54 2 is_stmt 0 view .LVU842
 2839              	.LBE309:
 2840              	.LBE308:
  88:Core/Src/BNO055.c **** 		currState->currentPage = newPage;
 2841              		.loc 1 88 3 is_stmt 1 view .LVU843
 2842              	.LBB310:
 2843              	.LBI310:
  61:Core/Src/BNO055.c **** 	if(error != HAL_OK){
 2844              		.loc 1 61 20 view .LVU844
 2845              	.LBB311:
  62:Core/Src/BNO055.c **** 		HAL_GPIO_WritePin(LD2_GPIO_Port, LD2_Pin, GPIO_PIN_SET);
 2846              		.loc 1 62 2 view .LVU845
  62:Core/Src/BNO055.c **** 		HAL_GPIO_WritePin(LD2_GPIO_Port, LD2_Pin, GPIO_PIN_SET);
 2847              		.loc 1 62 4 is_stmt 0 view .LVU846
 2848 0102 30B9     		cbnz	r0, .L149
 2849              	.LVL257:
  62:Core/Src/BNO055.c **** 		HAL_GPIO_WritePin(LD2_GPIO_Port, LD2_Pin, GPIO_PIN_SET);
 2850              		.loc 1 62 4 view .LVU847
 2851              	.LBE311:
 2852              	.LBE310:
  89:Core/Src/BNO055.c **** 		HAL_Delay(20);
 2853              		.loc 1 89 3 is_stmt 1 view .LVU848
  89:Core/Src/BNO055.c **** 		HAL_Delay(20);
 2854              		.loc 1 89 26 is_stmt 0 view .LVU849
 2855 0104 094B     		ldr	r3, .L150
 2856 0106 0022     		movs	r2, #0
 2857 0108 5A70     		strb	r2, [r3, #1]
  90:Core/Src/BNO055.c **** 	}
 2858              		.loc 1 90 3 is_stmt 1 view .LVU850
 2859 010a 1420     		movs	r0, #20
 2860              	.LVL258:
  90:Core/Src/BNO055.c **** 	}
 2861              		.loc 1 90 3 is_stmt 0 view .LVU851
 2862 010c FFF7FEFF 		bl	HAL_Delay
 2863              	.LVL259:
 2864 0110 81E7     		b	.L139
 2865              	.LVL260:
 2866              	.L149:
 2867              	.LBB313:
 2868              	.LBB312:
ARM GAS  C:\Users\baske\AppData\Local\Temp\ccVCqxIy.s 			page 69


  63:Core/Src/BNO055.c **** 		while(1);
 2869              		.loc 1 63 3 is_stmt 1 view .LVU852
 2870 0112 0122     		movs	r2, #1
 2871 0114 2021     		movs	r1, #32
 2872 0116 0848     		ldr	r0, .L150+12
 2873              	.LVL261:
  63:Core/Src/BNO055.c **** 		while(1);
 2874              		.loc 1 63 3 is_stmt 0 view .LVU853
 2875 0118 FFF7FEFF 		bl	HAL_GPIO_WritePin
 2876              	.LVL262:
 2877              	.L141:
  64:Core/Src/BNO055.c **** 	}
 2878              		.loc 1 64 3 is_stmt 1 view .LVU854
  64:Core/Src/BNO055.c **** 	}
 2879              		.loc 1 64 8 view .LVU855
 2880 011c FEE7     		b	.L141
 2881              	.LVL263:
 2882              	.L147:
  64:Core/Src/BNO055.c **** 	}
 2883              		.loc 1 64 8 is_stmt 0 view .LVU856
 2884              	.LBE312:
 2885              	.LBE313:
 2886              	.LBE314:
 2887              	.LBE320:
 2888              	.LBB321:
 2889              	.LBB319:
  63:Core/Src/BNO055.c **** 		while(1);
 2890              		.loc 1 63 3 is_stmt 1 view .LVU857
 2891 011e 0122     		movs	r2, #1
 2892 0120 2021     		movs	r1, #32
 2893 0122 0548     		ldr	r0, .L150+12
 2894 0124 FFF7FEFF 		bl	HAL_GPIO_WritePin
 2895              	.LVL264:
 2896              	.L143:
  64:Core/Src/BNO055.c **** 	}
 2897              		.loc 1 64 3 view .LVU858
  64:Core/Src/BNO055.c **** 	}
 2898              		.loc 1 64 8 view .LVU859
 2899 0128 FEE7     		b	.L143
 2900              	.L151:
 2901 012a 00BF     		.align	2
 2902              	.L150:
 2903 012c 00000000 		.word	.LANCHOR1
 2904 0130 00000000 		.word	.LANCHOR0
 2905 0134 0000C842 		.word	1120403456
 2906 0138 00000240 		.word	1073872896
 2907              	.LBE319:
 2908              	.LBE321:
 2909              		.cfi_endproc
 2910              	.LFE143:
 2912              		.section	.text.BNO055_Get_Gravity_Vec,"ax",%progbits
 2913              		.align	1
 2914              		.global	BNO055_Get_Gravity_Vec
 2915              		.syntax unified
 2916              		.thumb
 2917              		.thumb_func
 2919              	BNO055_Get_Gravity_Vec:
ARM GAS  C:\Users\baske\AppData\Local\Temp\ccVCqxIy.s 			page 70


 2920              	.LVL265:
 2921              	.LFB144:
 343:Core/Src/BNO055.c **** 
 344:Core/Src/BNO055.c **** BNO055_ERROR BNO055_Get_Gravity_Vec(BNO055_Axis_Vec_t* vec){
 2922              		.loc 1 344 60 view -0
 2923              		.cfi_startproc
 2924              		@ args = 0, pretend = 0, frame = 16
 2925              		@ frame_needed = 0, uses_anonymous_args = 0
 2926              		.loc 1 344 60 is_stmt 0 view .LVU861
 2927 0000 F0B5     		push	{r4, r5, r6, r7, lr}
 2928              		.cfi_def_cfa_offset 20
 2929              		.cfi_offset 4, -20
 2930              		.cfi_offset 5, -16
 2931              		.cfi_offset 6, -12
 2932              		.cfi_offset 7, -8
 2933              		.cfi_offset 14, -4
 2934 0002 87B0     		sub	sp, sp, #28
 2935              		.cfi_def_cfa_offset 48
 2936 0004 0446     		mov	r4, r0
 345:Core/Src/BNO055.c **** 
 346:Core/Src/BNO055.c **** 	HAL_StatusTypeDef error;
 2937              		.loc 1 346 2 is_stmt 1 view .LVU862
 347:Core/Src/BNO055.c **** 	uint8_t tempBuf[6];
 2938              		.loc 1 347 2 view .LVU863
 348:Core/Src/BNO055.c **** 
 349:Core/Src/BNO055.c **** 	/* Makes sure BNO055 is in NDOF mode and Page 0 */
 350:Core/Src/BNO055.c **** 	BNO055_STATUS_CHECK_AND_SET(&state, NDOF, BNO055_PAGE_0);
 2939              		.loc 1 350 2 view .LVU864
 2940              	.LVL266:
 2941              	.LBB336:
 2942              	.LBI336:
  73:Core/Src/BNO055.c **** 
 2943              		.loc 1 73 20 view .LVU865
 2944              	.LBB337:
  75:Core/Src/BNO055.c **** 
 2945              		.loc 1 75 2 view .LVU866
  78:Core/Src/BNO055.c **** 		error = BNO055_Write(BNO055_OPR_MODE, newMode);
 2946              		.loc 1 78 2 view .LVU867
  78:Core/Src/BNO055.c **** 		error = BNO055_Write(BNO055_OPR_MODE, newMode);
 2947              		.loc 1 78 14 is_stmt 0 view .LVU868
 2948 0006 494B     		ldr	r3, .L167
 2949 0008 1B78     		ldrb	r3, [r3]	@ zero_extendqisi2
  78:Core/Src/BNO055.c **** 		error = BNO055_Write(BNO055_OPR_MODE, newMode);
 2950              		.loc 1 78 4 view .LVU869
 2951 000a 0C2B     		cmp	r3, #12
 2952 000c 4DD1     		bne	.L162
 2953              	.LVL267:
 2954              	.L153:
  86:Core/Src/BNO055.c **** 		error = BNO055_Write(BNO055_PAGE_ID, newPage);
 2955              		.loc 1 86 2 is_stmt 1 view .LVU870
  86:Core/Src/BNO055.c **** 		error = BNO055_Write(BNO055_PAGE_ID, newPage);
 2956              		.loc 1 86 14 is_stmt 0 view .LVU871
 2957 000e 474B     		ldr	r3, .L167
 2958 0010 5B78     		ldrb	r3, [r3, #1]	@ zero_extendqisi2
  86:Core/Src/BNO055.c **** 		error = BNO055_Write(BNO055_PAGE_ID, newPage);
 2959              		.loc 1 86 4 view .LVU872
 2960 0012 002B     		cmp	r3, #0
ARM GAS  C:\Users\baske\AppData\Local\Temp\ccVCqxIy.s 			page 71


 2961 0014 66D1     		bne	.L163
 2962              	.L156:
 2963              	.LVL268:
  86:Core/Src/BNO055.c **** 		error = BNO055_Write(BNO055_PAGE_ID, newPage);
 2964              		.loc 1 86 4 view .LVU873
 2965              	.LBE337:
 2966              	.LBE336:
 351:Core/Src/BNO055.c **** 
 352:Core/Src/BNO055.c **** 	/* Grab Gravity LSB and MSB data of all axes */
 353:Core/Src/BNO055.c **** 	error = BNO055_Read(BNO055_GRV_DATA_X_LSB, tempBuf, 6);
 2967              		.loc 1 353 2 is_stmt 1 view .LVU874
 2968 0016 2E23     		movs	r3, #46
 2969 0018 8DF80C30 		strb	r3, [sp, #12]
 2970              	.LVL269:
 2971              	.LBB351:
 2972              	.LBI351:
  33:Core/Src/BNO055.c **** 
 2973              		.loc 1 33 33 view .LVU875
 2974              	.LBB352:
  35:Core/Src/BNO055.c **** 
 2975              		.loc 1 35 2 view .LVU876
  37:Core/Src/BNO055.c **** 	error |= HAL_I2C_Master_Receive(BNO055_I2C, BNO055_I2C_ADDR<<1, buf, len, BNO055_READ_TIMEOUT);
 2976              		.loc 1 37 2 view .LVU877
  37:Core/Src/BNO055.c **** 	error |= HAL_I2C_Master_Receive(BNO055_I2C, BNO055_I2C_ADDR<<1, buf, len, BNO055_READ_TIMEOUT);
 2977              		.loc 1 37 10 is_stmt 0 view .LVU878
 2978 001c 444E     		ldr	r6, .L167+4
 2979 001e 6427     		movs	r7, #100
 2980 0020 0097     		str	r7, [sp]
 2981 0022 0123     		movs	r3, #1
 2982              	.LVL270:
  37:Core/Src/BNO055.c **** 	error |= HAL_I2C_Master_Receive(BNO055_I2C, BNO055_I2C_ADDR<<1, buf, len, BNO055_READ_TIMEOUT);
 2983              		.loc 1 37 10 view .LVU879
 2984 0024 03AA     		add	r2, sp, #12
 2985              	.LVL271:
  37:Core/Src/BNO055.c **** 	error |= HAL_I2C_Master_Receive(BNO055_I2C, BNO055_I2C_ADDR<<1, buf, len, BNO055_READ_TIMEOUT);
 2986              		.loc 1 37 10 view .LVU880
 2987 0026 5021     		movs	r1, #80
 2988 0028 3068     		ldr	r0, [r6]
 2989 002a FFF7FEFF 		bl	HAL_I2C_Master_Transmit
 2990              	.LVL272:
  37:Core/Src/BNO055.c **** 	error |= HAL_I2C_Master_Receive(BNO055_I2C, BNO055_I2C_ADDR<<1, buf, len, BNO055_READ_TIMEOUT);
 2991              		.loc 1 37 10 view .LVU881
 2992 002e 0546     		mov	r5, r0
 2993              	.LVL273:
  38:Core/Src/BNO055.c **** 
 2994              		.loc 1 38 2 is_stmt 1 view .LVU882
  38:Core/Src/BNO055.c **** 
 2995              		.loc 1 38 11 is_stmt 0 view .LVU883
 2996 0030 0097     		str	r7, [sp]
 2997 0032 0623     		movs	r3, #6
 2998 0034 04AA     		add	r2, sp, #16
 2999              	.LVL274:
  38:Core/Src/BNO055.c **** 
 3000              		.loc 1 38 11 view .LVU884
 3001 0036 5021     		movs	r1, #80
 3002 0038 3068     		ldr	r0, [r6]
 3003 003a FFF7FEFF 		bl	HAL_I2C_Master_Receive
ARM GAS  C:\Users\baske\AppData\Local\Temp\ccVCqxIy.s 			page 72


 3004              	.LVL275:
  38:Core/Src/BNO055.c **** 
 3005              		.loc 1 38 8 view .LVU885
 3006 003e 0543     		orrs	r5, r5, r0
 3007              	.LVL276:
  40:Core/Src/BNO055.c **** 
 3008              		.loc 1 40 2 is_stmt 1 view .LVU886
  40:Core/Src/BNO055.c **** 
 3009              		.loc 1 40 2 is_stmt 0 view .LVU887
 3010              	.LBE352:
 3011              	.LBE351:
 354:Core/Src/BNO055.c **** 	BNO055_ERROR_HANDLE(error);
 3012              		.loc 1 354 2 is_stmt 1 view .LVU888
 3013              	.LBB353:
 3014              	.LBI353:
  61:Core/Src/BNO055.c **** 	if(error != HAL_OK){
 3015              		.loc 1 61 20 view .LVU889
 3016              	.LBB354:
  62:Core/Src/BNO055.c **** 		HAL_GPIO_WritePin(LD2_GPIO_Port, LD2_Pin, GPIO_PIN_SET);
 3017              		.loc 1 62 2 view .LVU890
  62:Core/Src/BNO055.c **** 		HAL_GPIO_WritePin(LD2_GPIO_Port, LD2_Pin, GPIO_PIN_SET);
 3018              		.loc 1 62 4 is_stmt 0 view .LVU891
 3019 0040 15F0FF0F 		tst	r5, #255
 3020 0044 6BD1     		bne	.L164
 3021              	.LVL277:
  62:Core/Src/BNO055.c **** 		HAL_GPIO_WritePin(LD2_GPIO_Port, LD2_Pin, GPIO_PIN_SET);
 3022              		.loc 1 62 4 view .LVU892
 3023              	.LBE354:
 3024              	.LBE353:
 355:Core/Src/BNO055.c **** 
 356:Core/Src/BNO055.c **** 	/* Parse Data into Vector Struct */
 357:Core/Src/BNO055.c **** 	vec->x = (int16_t)((tempBuf[1]<<8) | tempBuf[0]) / BNO055_GRAV_MG2_SCALE;
 3025              		.loc 1 357 2 is_stmt 1 view .LVU893
 3026              		.loc 1 357 29 is_stmt 0 view .LVU894
 3027 0046 9DF81120 		ldrb	r2, [sp, #17]	@ zero_extendqisi2
 3028              		.loc 1 357 46 view .LVU895
 3029 004a 9DF81030 		ldrb	r3, [sp, #16]	@ zero_extendqisi2
 3030              		.loc 1 357 11 view .LVU896
 3031 004e 43EA0223 		orr	r3, r3, r2, lsl #8
 3032 0052 1BB2     		sxth	r3, r3
 3033              		.loc 1 357 51 view .LVU897
 3034 0054 07EE903A 		vmov	s15, r3	@ int
 3035 0058 F8EEE77A 		vcvt.f32.s32	s15, s15
 3036 005c 9FED357A 		vldr.32	s14, .L167+8
 3037 0060 C7EE876A 		vdiv.f32	s13, s15, s14
 3038              		.loc 1 357 9 view .LVU898
 3039 0064 C4ED006A 		vstr.32	s13, [r4]
 358:Core/Src/BNO055.c **** 	vec->y = (int16_t)((tempBuf[3]<<8) | tempBuf[2]) / BNO055_GRAV_MG2_SCALE;
 3040              		.loc 1 358 2 is_stmt 1 view .LVU899
 3041              		.loc 1 358 29 is_stmt 0 view .LVU900
 3042 0068 9DF81320 		ldrb	r2, [sp, #19]	@ zero_extendqisi2
 3043              		.loc 1 358 46 view .LVU901
 3044 006c 9DF81230 		ldrb	r3, [sp, #18]	@ zero_extendqisi2
 3045              		.loc 1 358 11 view .LVU902
 3046 0070 43EA0223 		orr	r3, r3, r2, lsl #8
 3047 0074 1BB2     		sxth	r3, r3
 3048              		.loc 1 358 51 view .LVU903
ARM GAS  C:\Users\baske\AppData\Local\Temp\ccVCqxIy.s 			page 73


 3049 0076 07EE903A 		vmov	s15, r3	@ int
 3050 007a F8EEE77A 		vcvt.f32.s32	s15, s15
 3051 007e C7EE876A 		vdiv.f32	s13, s15, s14
 3052              		.loc 1 358 9 view .LVU904
 3053 0082 C4ED016A 		vstr.32	s13, [r4, #4]
 359:Core/Src/BNO055.c **** 	vec->z = (int16_t)((tempBuf[5]<<8) | tempBuf[4]) / BNO055_GRAV_MG2_SCALE;
 3054              		.loc 1 359 2 is_stmt 1 view .LVU905
 3055              		.loc 1 359 29 is_stmt 0 view .LVU906
 3056 0086 9DF81520 		ldrb	r2, [sp, #21]	@ zero_extendqisi2
 3057              		.loc 1 359 46 view .LVU907
 3058 008a 9DF81430 		ldrb	r3, [sp, #20]	@ zero_extendqisi2
 3059              		.loc 1 359 11 view .LVU908
 3060 008e 43EA0223 		orr	r3, r3, r2, lsl #8
 3061 0092 1BB2     		sxth	r3, r3
 3062              		.loc 1 359 51 view .LVU909
 3063 0094 07EE903A 		vmov	s15, r3	@ int
 3064 0098 F8EEE77A 		vcvt.f32.s32	s15, s15
 3065 009c C7EE876A 		vdiv.f32	s13, s15, s14
 3066              		.loc 1 359 9 view .LVU910
 3067 00a0 C4ED026A 		vstr.32	s13, [r4, #8]
 360:Core/Src/BNO055.c **** 
 361:Core/Src/BNO055.c **** 	return BNO055_SUCCESS;
 3068              		.loc 1 361 2 is_stmt 1 view .LVU911
 362:Core/Src/BNO055.c **** 
 363:Core/Src/BNO055.c **** }
 3069              		.loc 1 363 1 is_stmt 0 view .LVU912
 3070 00a4 0020     		movs	r0, #0
 3071 00a6 07B0     		add	sp, sp, #28
 3072              		.cfi_remember_state
 3073              		.cfi_def_cfa_offset 20
 3074              		@ sp needed
 3075 00a8 F0BD     		pop	{r4, r5, r6, r7, pc}
 3076              	.LVL278:
 3077              	.L162:
 3078              		.cfi_restore_state
 3079              	.LBB356:
 3080              	.LBB350:
  79:Core/Src/BNO055.c **** 		BNO055_ERROR_HANDLE(error);
 3081              		.loc 1 79 3 is_stmt 1 view .LVU913
 3082              	.LBB338:
 3083              	.LBI338:
  47:Core/Src/BNO055.c **** 
 3084              		.loc 1 47 33 view .LVU914
 3085              	.LBB339:
  49:Core/Src/BNO055.c **** 	uint8_t transmitBuf[2] = {reg, data};
 3086              		.loc 1 49 2 view .LVU915
  50:Core/Src/BNO055.c **** 
 3087              		.loc 1 50 2 view .LVU916
  50:Core/Src/BNO055.c **** 
 3088              		.loc 1 50 10 is_stmt 0 view .LVU917
 3089 00aa 3D23     		movs	r3, #61
 3090 00ac 8DF80C30 		strb	r3, [sp, #12]
 3091 00b0 0C23     		movs	r3, #12
 3092 00b2 8DF80D30 		strb	r3, [sp, #13]
  52:Core/Src/BNO055.c **** 
 3093              		.loc 1 52 2 is_stmt 1 view .LVU918
  52:Core/Src/BNO055.c **** 
ARM GAS  C:\Users\baske\AppData\Local\Temp\ccVCqxIy.s 			page 74


 3094              		.loc 1 52 10 is_stmt 0 view .LVU919
 3095 00b6 6423     		movs	r3, #100
 3096 00b8 0093     		str	r3, [sp]
 3097 00ba 0223     		movs	r3, #2
 3098 00bc 03AA     		add	r2, sp, #12
 3099 00be 5021     		movs	r1, #80
 3100 00c0 1B48     		ldr	r0, .L167+4
 3101              	.LVL279:
  52:Core/Src/BNO055.c **** 
 3102              		.loc 1 52 10 view .LVU920
 3103 00c2 0068     		ldr	r0, [r0]
 3104 00c4 FFF7FEFF 		bl	HAL_I2C_Master_Transmit
 3105              	.LVL280:
  54:Core/Src/BNO055.c **** 
 3106              		.loc 1 54 2 is_stmt 1 view .LVU921
  54:Core/Src/BNO055.c **** 
 3107              		.loc 1 54 2 is_stmt 0 view .LVU922
 3108              	.LBE339:
 3109              	.LBE338:
  80:Core/Src/BNO055.c **** 		currState->currentMode = newMode;
 3110              		.loc 1 80 3 is_stmt 1 view .LVU923
 3111              	.LBB340:
 3112              	.LBI340:
  61:Core/Src/BNO055.c **** 	if(error != HAL_OK){
 3113              		.loc 1 61 20 view .LVU924
 3114              	.LBB341:
  62:Core/Src/BNO055.c **** 		HAL_GPIO_WritePin(LD2_GPIO_Port, LD2_Pin, GPIO_PIN_SET);
 3115              		.loc 1 62 2 view .LVU925
  62:Core/Src/BNO055.c **** 		HAL_GPIO_WritePin(LD2_GPIO_Port, LD2_Pin, GPIO_PIN_SET);
 3116              		.loc 1 62 4 is_stmt 0 view .LVU926
 3117 00c8 30B9     		cbnz	r0, .L165
 3118              	.LVL281:
  62:Core/Src/BNO055.c **** 		HAL_GPIO_WritePin(LD2_GPIO_Port, LD2_Pin, GPIO_PIN_SET);
 3119              		.loc 1 62 4 view .LVU927
 3120              	.LBE341:
 3121              	.LBE340:
  81:Core/Src/BNO055.c **** 		HAL_Delay(20);
 3122              		.loc 1 81 3 is_stmt 1 view .LVU928
  81:Core/Src/BNO055.c **** 		HAL_Delay(20);
 3123              		.loc 1 81 26 is_stmt 0 view .LVU929
 3124 00ca 184B     		ldr	r3, .L167
 3125 00cc 0C22     		movs	r2, #12
 3126 00ce 1A70     		strb	r2, [r3]
  82:Core/Src/BNO055.c **** 	}
 3127              		.loc 1 82 3 is_stmt 1 view .LVU930
 3128 00d0 1420     		movs	r0, #20
 3129              	.LVL282:
  82:Core/Src/BNO055.c **** 	}
 3130              		.loc 1 82 3 is_stmt 0 view .LVU931
 3131 00d2 FFF7FEFF 		bl	HAL_Delay
 3132              	.LVL283:
 3133 00d6 9AE7     		b	.L153
 3134              	.LVL284:
 3135              	.L165:
 3136              	.LBB343:
 3137              	.LBB342:
  63:Core/Src/BNO055.c **** 		while(1);
ARM GAS  C:\Users\baske\AppData\Local\Temp\ccVCqxIy.s 			page 75


 3138              		.loc 1 63 3 is_stmt 1 view .LVU932
 3139 00d8 0122     		movs	r2, #1
 3140 00da 2021     		movs	r1, #32
 3141 00dc 1648     		ldr	r0, .L167+12
 3142              	.LVL285:
  63:Core/Src/BNO055.c **** 		while(1);
 3143              		.loc 1 63 3 is_stmt 0 view .LVU933
 3144 00de FFF7FEFF 		bl	HAL_GPIO_WritePin
 3145              	.LVL286:
 3146              	.L155:
  64:Core/Src/BNO055.c **** 	}
 3147              		.loc 1 64 3 is_stmt 1 view .LVU934
  64:Core/Src/BNO055.c **** 	}
 3148              		.loc 1 64 8 view .LVU935
 3149 00e2 FEE7     		b	.L155
 3150              	.L163:
  64:Core/Src/BNO055.c **** 	}
 3151              		.loc 1 64 8 is_stmt 0 view .LVU936
 3152              	.LBE342:
 3153              	.LBE343:
  87:Core/Src/BNO055.c **** 		BNO055_ERROR_HANDLE(error);
 3154              		.loc 1 87 3 is_stmt 1 view .LVU937
 3155              	.LVL287:
 3156              	.LBB344:
 3157              	.LBI344:
  47:Core/Src/BNO055.c **** 
 3158              		.loc 1 47 33 view .LVU938
 3159              	.LBB345:
  49:Core/Src/BNO055.c **** 	uint8_t transmitBuf[2] = {reg, data};
 3160              		.loc 1 49 2 view .LVU939
  50:Core/Src/BNO055.c **** 
 3161              		.loc 1 50 2 view .LVU940
  50:Core/Src/BNO055.c **** 
 3162              		.loc 1 50 10 is_stmt 0 view .LVU941
 3163 00e4 0723     		movs	r3, #7
 3164 00e6 8DF80C30 		strb	r3, [sp, #12]
 3165 00ea 0023     		movs	r3, #0
 3166 00ec 8DF80D30 		strb	r3, [sp, #13]
  52:Core/Src/BNO055.c **** 
 3167              		.loc 1 52 2 is_stmt 1 view .LVU942
  52:Core/Src/BNO055.c **** 
 3168              		.loc 1 52 10 is_stmt 0 view .LVU943
 3169 00f0 6423     		movs	r3, #100
 3170 00f2 0093     		str	r3, [sp]
 3171 00f4 0223     		movs	r3, #2
 3172 00f6 03AA     		add	r2, sp, #12
 3173 00f8 5021     		movs	r1, #80
 3174 00fa 0D48     		ldr	r0, .L167+4
 3175 00fc 0068     		ldr	r0, [r0]
 3176 00fe FFF7FEFF 		bl	HAL_I2C_Master_Transmit
 3177              	.LVL288:
  54:Core/Src/BNO055.c **** 
 3178              		.loc 1 54 2 is_stmt 1 view .LVU944
  54:Core/Src/BNO055.c **** 
 3179              		.loc 1 54 2 is_stmt 0 view .LVU945
 3180              	.LBE345:
 3181              	.LBE344:
ARM GAS  C:\Users\baske\AppData\Local\Temp\ccVCqxIy.s 			page 76


  88:Core/Src/BNO055.c **** 		currState->currentPage = newPage;
 3182              		.loc 1 88 3 is_stmt 1 view .LVU946
 3183              	.LBB346:
 3184              	.LBI346:
  61:Core/Src/BNO055.c **** 	if(error != HAL_OK){
 3185              		.loc 1 61 20 view .LVU947
 3186              	.LBB347:
  62:Core/Src/BNO055.c **** 		HAL_GPIO_WritePin(LD2_GPIO_Port, LD2_Pin, GPIO_PIN_SET);
 3187              		.loc 1 62 2 view .LVU948
  62:Core/Src/BNO055.c **** 		HAL_GPIO_WritePin(LD2_GPIO_Port, LD2_Pin, GPIO_PIN_SET);
 3188              		.loc 1 62 4 is_stmt 0 view .LVU949
 3189 0102 30B9     		cbnz	r0, .L166
 3190              	.LVL289:
  62:Core/Src/BNO055.c **** 		HAL_GPIO_WritePin(LD2_GPIO_Port, LD2_Pin, GPIO_PIN_SET);
 3191              		.loc 1 62 4 view .LVU950
 3192              	.LBE347:
 3193              	.LBE346:
  89:Core/Src/BNO055.c **** 		HAL_Delay(20);
 3194              		.loc 1 89 3 is_stmt 1 view .LVU951
  89:Core/Src/BNO055.c **** 		HAL_Delay(20);
 3195              		.loc 1 89 26 is_stmt 0 view .LVU952
 3196 0104 094B     		ldr	r3, .L167
 3197 0106 0022     		movs	r2, #0
 3198 0108 5A70     		strb	r2, [r3, #1]
  90:Core/Src/BNO055.c **** 	}
 3199              		.loc 1 90 3 is_stmt 1 view .LVU953
 3200 010a 1420     		movs	r0, #20
 3201              	.LVL290:
  90:Core/Src/BNO055.c **** 	}
 3202              		.loc 1 90 3 is_stmt 0 view .LVU954
 3203 010c FFF7FEFF 		bl	HAL_Delay
 3204              	.LVL291:
 3205 0110 81E7     		b	.L156
 3206              	.LVL292:
 3207              	.L166:
 3208              	.LBB349:
 3209              	.LBB348:
  63:Core/Src/BNO055.c **** 		while(1);
 3210              		.loc 1 63 3 is_stmt 1 view .LVU955
 3211 0112 0122     		movs	r2, #1
 3212 0114 2021     		movs	r1, #32
 3213 0116 0848     		ldr	r0, .L167+12
 3214              	.LVL293:
  63:Core/Src/BNO055.c **** 		while(1);
 3215              		.loc 1 63 3 is_stmt 0 view .LVU956
 3216 0118 FFF7FEFF 		bl	HAL_GPIO_WritePin
 3217              	.LVL294:
 3218              	.L158:
  64:Core/Src/BNO055.c **** 	}
 3219              		.loc 1 64 3 is_stmt 1 view .LVU957
  64:Core/Src/BNO055.c **** 	}
 3220              		.loc 1 64 8 view .LVU958
 3221 011c FEE7     		b	.L158
 3222              	.LVL295:
 3223              	.L164:
  64:Core/Src/BNO055.c **** 	}
 3224              		.loc 1 64 8 is_stmt 0 view .LVU959
ARM GAS  C:\Users\baske\AppData\Local\Temp\ccVCqxIy.s 			page 77


 3225              	.LBE348:
 3226              	.LBE349:
 3227              	.LBE350:
 3228              	.LBE356:
 3229              	.LBB357:
 3230              	.LBB355:
  63:Core/Src/BNO055.c **** 		while(1);
 3231              		.loc 1 63 3 is_stmt 1 view .LVU960
 3232 011e 0122     		movs	r2, #1
 3233 0120 2021     		movs	r1, #32
 3234 0122 0548     		ldr	r0, .L167+12
 3235 0124 FFF7FEFF 		bl	HAL_GPIO_WritePin
 3236              	.LVL296:
 3237              	.L160:
  64:Core/Src/BNO055.c **** 	}
 3238              		.loc 1 64 3 view .LVU961
  64:Core/Src/BNO055.c **** 	}
 3239              		.loc 1 64 8 view .LVU962
 3240 0128 FEE7     		b	.L160
 3241              	.L168:
 3242 012a 00BF     		.align	2
 3243              	.L167:
 3244 012c 00000000 		.word	.LANCHOR1
 3245 0130 00000000 		.word	.LANCHOR0
 3246 0134 0000C842 		.word	1120403456
 3247 0138 00000240 		.word	1073872896
 3248              	.LBE355:
 3249              	.LBE357:
 3250              		.cfi_endproc
 3251              	.LFE144:
 3253              		.section	.text.BNO055_Get_Temp,"ax",%progbits
 3254              		.align	1
 3255              		.global	BNO055_Get_Temp
 3256              		.syntax unified
 3257              		.thumb
 3258              		.thumb_func
 3260              	BNO055_Get_Temp:
 3261              	.LVL297:
 3262              	.LFB145:
 364:Core/Src/BNO055.c **** 
 365:Core/Src/BNO055.c **** BNO055_ERROR BNO055_Get_Temp(uint8_t temp){
 3263              		.loc 1 365 43 view -0
 3264              		.cfi_startproc
 3265              		@ args = 0, pretend = 0, frame = 16
 3266              		@ frame_needed = 0, uses_anonymous_args = 0
 3267              		.loc 1 365 43 is_stmt 0 view .LVU964
 3268 0000 70B5     		push	{r4, r5, r6, lr}
 3269              		.cfi_def_cfa_offset 16
 3270              		.cfi_offset 4, -16
 3271              		.cfi_offset 5, -12
 3272              		.cfi_offset 6, -8
 3273              		.cfi_offset 14, -4
 3274 0002 86B0     		sub	sp, sp, #24
 3275              		.cfi_def_cfa_offset 40
 3276 0004 8DF80F00 		strb	r0, [sp, #15]
 366:Core/Src/BNO055.c **** 
 367:Core/Src/BNO055.c **** 	HAL_StatusTypeDef error;
ARM GAS  C:\Users\baske\AppData\Local\Temp\ccVCqxIy.s 			page 78


 3277              		.loc 1 367 2 is_stmt 1 view .LVU965
 368:Core/Src/BNO055.c **** 
 369:Core/Src/BNO055.c **** 	/* Makes sure BNO055 is in NDOF mode and Page 0 */
 370:Core/Src/BNO055.c **** 	BNO055_STATUS_CHECK_AND_SET(&state, NDOF, BNO055_PAGE_0);
 3278              		.loc 1 370 2 view .LVU966
 3279              	.LVL298:
 3280              	.LBB372:
 3281              	.LBI372:
  73:Core/Src/BNO055.c **** 
 3282              		.loc 1 73 20 view .LVU967
 3283              	.LBB373:
  75:Core/Src/BNO055.c **** 
 3284              		.loc 1 75 2 view .LVU968
  78:Core/Src/BNO055.c **** 		error = BNO055_Write(BNO055_OPR_MODE, newMode);
 3285              		.loc 1 78 2 view .LVU969
  78:Core/Src/BNO055.c **** 		error = BNO055_Write(BNO055_OPR_MODE, newMode);
 3286              		.loc 1 78 14 is_stmt 0 view .LVU970
 3287 0008 314B     		ldr	r3, .L184
 3288 000a 1B78     		ldrb	r3, [r3]	@ zero_extendqisi2
  78:Core/Src/BNO055.c **** 		error = BNO055_Write(BNO055_OPR_MODE, newMode);
 3289              		.loc 1 78 4 view .LVU971
 3290 000c 0C2B     		cmp	r3, #12
 3291 000e 1FD1     		bne	.L179
 3292              	.LVL299:
 3293              	.L170:
  86:Core/Src/BNO055.c **** 		error = BNO055_Write(BNO055_PAGE_ID, newPage);
 3294              		.loc 1 86 2 is_stmt 1 view .LVU972
  86:Core/Src/BNO055.c **** 		error = BNO055_Write(BNO055_PAGE_ID, newPage);
 3295              		.loc 1 86 14 is_stmt 0 view .LVU973
 3296 0010 2F4B     		ldr	r3, .L184
 3297 0012 5B78     		ldrb	r3, [r3, #1]	@ zero_extendqisi2
  86:Core/Src/BNO055.c **** 		error = BNO055_Write(BNO055_PAGE_ID, newPage);
 3298              		.loc 1 86 4 view .LVU974
 3299 0014 002B     		cmp	r3, #0
 3300 0016 38D1     		bne	.L180
 3301              	.L173:
 3302              	.LVL300:
  86:Core/Src/BNO055.c **** 		error = BNO055_Write(BNO055_PAGE_ID, newPage);
 3303              		.loc 1 86 4 view .LVU975
 3304              	.LBE373:
 3305              	.LBE372:
 371:Core/Src/BNO055.c **** 
 372:Core/Src/BNO055.c **** 	/* Grab Temperature data */
 373:Core/Src/BNO055.c **** 	error = BNO055_Read(BNO055_TEMP, &temp, 1);
 3306              		.loc 1 373 2 is_stmt 1 view .LVU976
 3307 0018 3423     		movs	r3, #52
 3308 001a 8DF81430 		strb	r3, [sp, #20]
 3309              	.LVL301:
 3310              	.LBB387:
 3311              	.LBI387:
  33:Core/Src/BNO055.c **** 
 3312              		.loc 1 33 33 view .LVU977
 3313              	.LBB388:
  35:Core/Src/BNO055.c **** 
 3314              		.loc 1 35 2 view .LVU978
  37:Core/Src/BNO055.c **** 	error |= HAL_I2C_Master_Receive(BNO055_I2C, BNO055_I2C_ADDR<<1, buf, len, BNO055_READ_TIMEOUT);
 3315              		.loc 1 37 2 view .LVU979
ARM GAS  C:\Users\baske\AppData\Local\Temp\ccVCqxIy.s 			page 79


  37:Core/Src/BNO055.c **** 	error |= HAL_I2C_Master_Receive(BNO055_I2C, BNO055_I2C_ADDR<<1, buf, len, BNO055_READ_TIMEOUT);
 3316              		.loc 1 37 10 is_stmt 0 view .LVU980
 3317 001e 2D4D     		ldr	r5, .L184+4
 3318 0020 6426     		movs	r6, #100
 3319 0022 0096     		str	r6, [sp]
 3320 0024 0123     		movs	r3, #1
 3321              	.LVL302:
  37:Core/Src/BNO055.c **** 	error |= HAL_I2C_Master_Receive(BNO055_I2C, BNO055_I2C_ADDR<<1, buf, len, BNO055_READ_TIMEOUT);
 3322              		.loc 1 37 10 view .LVU981
 3323 0026 05AA     		add	r2, sp, #20
 3324              	.LVL303:
  37:Core/Src/BNO055.c **** 	error |= HAL_I2C_Master_Receive(BNO055_I2C, BNO055_I2C_ADDR<<1, buf, len, BNO055_READ_TIMEOUT);
 3325              		.loc 1 37 10 view .LVU982
 3326 0028 5021     		movs	r1, #80
 3327 002a 2868     		ldr	r0, [r5]
 3328 002c FFF7FEFF 		bl	HAL_I2C_Master_Transmit
 3329              	.LVL304:
  37:Core/Src/BNO055.c **** 	error |= HAL_I2C_Master_Receive(BNO055_I2C, BNO055_I2C_ADDR<<1, buf, len, BNO055_READ_TIMEOUT);
 3330              		.loc 1 37 10 view .LVU983
 3331 0030 0446     		mov	r4, r0
 3332              	.LVL305:
  38:Core/Src/BNO055.c **** 
 3333              		.loc 1 38 2 is_stmt 1 view .LVU984
  38:Core/Src/BNO055.c **** 
 3334              		.loc 1 38 11 is_stmt 0 view .LVU985
 3335 0032 0096     		str	r6, [sp]
 3336 0034 0123     		movs	r3, #1
 3337 0036 0DF10F02 		add	r2, sp, #15
 3338              	.LVL306:
  38:Core/Src/BNO055.c **** 
 3339              		.loc 1 38 11 view .LVU986
 3340 003a 5021     		movs	r1, #80
 3341 003c 2868     		ldr	r0, [r5]
 3342 003e FFF7FEFF 		bl	HAL_I2C_Master_Receive
 3343              	.LVL307:
  38:Core/Src/BNO055.c **** 
 3344              		.loc 1 38 8 view .LVU987
 3345 0042 0443     		orrs	r4, r4, r0
 3346              	.LVL308:
  40:Core/Src/BNO055.c **** 
 3347              		.loc 1 40 2 is_stmt 1 view .LVU988
  40:Core/Src/BNO055.c **** 
 3348              		.loc 1 40 2 is_stmt 0 view .LVU989
 3349              	.LBE388:
 3350              	.LBE387:
 374:Core/Src/BNO055.c **** 	BNO055_ERROR_HANDLE(error);
 3351              		.loc 1 374 2 is_stmt 1 view .LVU990
 3352              	.LBB389:
 3353              	.LBI389:
  61:Core/Src/BNO055.c **** 	if(error != HAL_OK){
 3354              		.loc 1 61 20 view .LVU991
 3355              	.LBB390:
  62:Core/Src/BNO055.c **** 		HAL_GPIO_WritePin(LD2_GPIO_Port, LD2_Pin, GPIO_PIN_SET);
 3356              		.loc 1 62 2 view .LVU992
  62:Core/Src/BNO055.c **** 		HAL_GPIO_WritePin(LD2_GPIO_Port, LD2_Pin, GPIO_PIN_SET);
 3357              		.loc 1 62 4 is_stmt 0 view .LVU993
 3358 0044 14F0FF0F 		tst	r4, #255
ARM GAS  C:\Users\baske\AppData\Local\Temp\ccVCqxIy.s 			page 80


 3359 0048 3CD1     		bne	.L181
 3360              	.LVL309:
  62:Core/Src/BNO055.c **** 		HAL_GPIO_WritePin(LD2_GPIO_Port, LD2_Pin, GPIO_PIN_SET);
 3361              		.loc 1 62 4 view .LVU994
 3362              	.LBE390:
 3363              	.LBE389:
 375:Core/Src/BNO055.c **** 
 376:Core/Src/BNO055.c **** 	return BNO055_SUCCESS;
 3364              		.loc 1 376 2 is_stmt 1 view .LVU995
 377:Core/Src/BNO055.c **** 
 378:Core/Src/BNO055.c **** }
 3365              		.loc 1 378 1 is_stmt 0 view .LVU996
 3366 004a 0020     		movs	r0, #0
 3367 004c 06B0     		add	sp, sp, #24
 3368              		.cfi_remember_state
 3369              		.cfi_def_cfa_offset 16
 3370              		@ sp needed
 3371 004e 70BD     		pop	{r4, r5, r6, pc}
 3372              	.LVL310:
 3373              	.L179:
 3374              		.cfi_restore_state
 3375              	.LBB392:
 3376              	.LBB386:
  79:Core/Src/BNO055.c **** 		BNO055_ERROR_HANDLE(error);
 3377              		.loc 1 79 3 is_stmt 1 view .LVU997
 3378              	.LBB374:
 3379              	.LBI374:
  47:Core/Src/BNO055.c **** 
 3380              		.loc 1 47 33 view .LVU998
 3381              	.LBB375:
  49:Core/Src/BNO055.c **** 	uint8_t transmitBuf[2] = {reg, data};
 3382              		.loc 1 49 2 view .LVU999
  50:Core/Src/BNO055.c **** 
 3383              		.loc 1 50 2 view .LVU1000
  50:Core/Src/BNO055.c **** 
 3384              		.loc 1 50 10 is_stmt 0 view .LVU1001
 3385 0050 3D23     		movs	r3, #61
 3386 0052 8DF81430 		strb	r3, [sp, #20]
 3387 0056 0C23     		movs	r3, #12
 3388 0058 8DF81530 		strb	r3, [sp, #21]
  52:Core/Src/BNO055.c **** 
 3389              		.loc 1 52 2 is_stmt 1 view .LVU1002
  52:Core/Src/BNO055.c **** 
 3390              		.loc 1 52 10 is_stmt 0 view .LVU1003
 3391 005c 6423     		movs	r3, #100
 3392 005e 0093     		str	r3, [sp]
 3393 0060 0223     		movs	r3, #2
 3394 0062 05AA     		add	r2, sp, #20
 3395 0064 5021     		movs	r1, #80
 3396 0066 1B48     		ldr	r0, .L184+4
 3397              	.LVL311:
  52:Core/Src/BNO055.c **** 
 3398              		.loc 1 52 10 view .LVU1004
 3399 0068 0068     		ldr	r0, [r0]
 3400 006a FFF7FEFF 		bl	HAL_I2C_Master_Transmit
 3401              	.LVL312:
  54:Core/Src/BNO055.c **** 
ARM GAS  C:\Users\baske\AppData\Local\Temp\ccVCqxIy.s 			page 81


 3402              		.loc 1 54 2 is_stmt 1 view .LVU1005
  54:Core/Src/BNO055.c **** 
 3403              		.loc 1 54 2 is_stmt 0 view .LVU1006
 3404              	.LBE375:
 3405              	.LBE374:
  80:Core/Src/BNO055.c **** 		currState->currentMode = newMode;
 3406              		.loc 1 80 3 is_stmt 1 view .LVU1007
 3407              	.LBB376:
 3408              	.LBI376:
  61:Core/Src/BNO055.c **** 	if(error != HAL_OK){
 3409              		.loc 1 61 20 view .LVU1008
 3410              	.LBB377:
  62:Core/Src/BNO055.c **** 		HAL_GPIO_WritePin(LD2_GPIO_Port, LD2_Pin, GPIO_PIN_SET);
 3411              		.loc 1 62 2 view .LVU1009
  62:Core/Src/BNO055.c **** 		HAL_GPIO_WritePin(LD2_GPIO_Port, LD2_Pin, GPIO_PIN_SET);
 3412              		.loc 1 62 4 is_stmt 0 view .LVU1010
 3413 006e 30B9     		cbnz	r0, .L182
 3414              	.LVL313:
  62:Core/Src/BNO055.c **** 		HAL_GPIO_WritePin(LD2_GPIO_Port, LD2_Pin, GPIO_PIN_SET);
 3415              		.loc 1 62 4 view .LVU1011
 3416              	.LBE377:
 3417              	.LBE376:
  81:Core/Src/BNO055.c **** 		HAL_Delay(20);
 3418              		.loc 1 81 3 is_stmt 1 view .LVU1012
  81:Core/Src/BNO055.c **** 		HAL_Delay(20);
 3419              		.loc 1 81 26 is_stmt 0 view .LVU1013
 3420 0070 174B     		ldr	r3, .L184
 3421 0072 0C22     		movs	r2, #12
 3422 0074 1A70     		strb	r2, [r3]
  82:Core/Src/BNO055.c **** 	}
 3423              		.loc 1 82 3 is_stmt 1 view .LVU1014
 3424 0076 1420     		movs	r0, #20
 3425              	.LVL314:
  82:Core/Src/BNO055.c **** 	}
 3426              		.loc 1 82 3 is_stmt 0 view .LVU1015
 3427 0078 FFF7FEFF 		bl	HAL_Delay
 3428              	.LVL315:
 3429 007c C8E7     		b	.L170
 3430              	.LVL316:
 3431              	.L182:
 3432              	.LBB379:
 3433              	.LBB378:
  63:Core/Src/BNO055.c **** 		while(1);
 3434              		.loc 1 63 3 is_stmt 1 view .LVU1016
 3435 007e 0122     		movs	r2, #1
 3436 0080 2021     		movs	r1, #32
 3437 0082 1548     		ldr	r0, .L184+8
 3438              	.LVL317:
  63:Core/Src/BNO055.c **** 		while(1);
 3439              		.loc 1 63 3 is_stmt 0 view .LVU1017
 3440 0084 FFF7FEFF 		bl	HAL_GPIO_WritePin
 3441              	.LVL318:
 3442              	.L172:
  64:Core/Src/BNO055.c **** 	}
 3443              		.loc 1 64 3 is_stmt 1 view .LVU1018
  64:Core/Src/BNO055.c **** 	}
 3444              		.loc 1 64 8 view .LVU1019
ARM GAS  C:\Users\baske\AppData\Local\Temp\ccVCqxIy.s 			page 82


 3445 0088 FEE7     		b	.L172
 3446              	.L180:
  64:Core/Src/BNO055.c **** 	}
 3447              		.loc 1 64 8 is_stmt 0 view .LVU1020
 3448              	.LBE378:
 3449              	.LBE379:
  87:Core/Src/BNO055.c **** 		BNO055_ERROR_HANDLE(error);
 3450              		.loc 1 87 3 is_stmt 1 view .LVU1021
 3451              	.LVL319:
 3452              	.LBB380:
 3453              	.LBI380:
  47:Core/Src/BNO055.c **** 
 3454              		.loc 1 47 33 view .LVU1022
 3455              	.LBB381:
  49:Core/Src/BNO055.c **** 	uint8_t transmitBuf[2] = {reg, data};
 3456              		.loc 1 49 2 view .LVU1023
  50:Core/Src/BNO055.c **** 
 3457              		.loc 1 50 2 view .LVU1024
  50:Core/Src/BNO055.c **** 
 3458              		.loc 1 50 10 is_stmt 0 view .LVU1025
 3459 008a 0723     		movs	r3, #7
 3460 008c 8DF81430 		strb	r3, [sp, #20]
 3461 0090 0023     		movs	r3, #0
 3462 0092 8DF81530 		strb	r3, [sp, #21]
  52:Core/Src/BNO055.c **** 
 3463              		.loc 1 52 2 is_stmt 1 view .LVU1026
  52:Core/Src/BNO055.c **** 
 3464              		.loc 1 52 10 is_stmt 0 view .LVU1027
 3465 0096 6423     		movs	r3, #100
 3466 0098 0093     		str	r3, [sp]
 3467 009a 0223     		movs	r3, #2
 3468 009c 05AA     		add	r2, sp, #20
 3469 009e 5021     		movs	r1, #80
 3470 00a0 0C48     		ldr	r0, .L184+4
 3471 00a2 0068     		ldr	r0, [r0]
 3472 00a4 FFF7FEFF 		bl	HAL_I2C_Master_Transmit
 3473              	.LVL320:
  54:Core/Src/BNO055.c **** 
 3474              		.loc 1 54 2 is_stmt 1 view .LVU1028
  54:Core/Src/BNO055.c **** 
 3475              		.loc 1 54 2 is_stmt 0 view .LVU1029
 3476              	.LBE381:
 3477              	.LBE380:
  88:Core/Src/BNO055.c **** 		currState->currentPage = newPage;
 3478              		.loc 1 88 3 is_stmt 1 view .LVU1030
 3479              	.LBB382:
 3480              	.LBI382:
  61:Core/Src/BNO055.c **** 	if(error != HAL_OK){
 3481              		.loc 1 61 20 view .LVU1031
 3482              	.LBB383:
  62:Core/Src/BNO055.c **** 		HAL_GPIO_WritePin(LD2_GPIO_Port, LD2_Pin, GPIO_PIN_SET);
 3483              		.loc 1 62 2 view .LVU1032
  62:Core/Src/BNO055.c **** 		HAL_GPIO_WritePin(LD2_GPIO_Port, LD2_Pin, GPIO_PIN_SET);
 3484              		.loc 1 62 4 is_stmt 0 view .LVU1033
 3485 00a8 30B9     		cbnz	r0, .L183
 3486              	.LVL321:
  62:Core/Src/BNO055.c **** 		HAL_GPIO_WritePin(LD2_GPIO_Port, LD2_Pin, GPIO_PIN_SET);
ARM GAS  C:\Users\baske\AppData\Local\Temp\ccVCqxIy.s 			page 83


 3487              		.loc 1 62 4 view .LVU1034
 3488              	.LBE383:
 3489              	.LBE382:
  89:Core/Src/BNO055.c **** 		HAL_Delay(20);
 3490              		.loc 1 89 3 is_stmt 1 view .LVU1035
  89:Core/Src/BNO055.c **** 		HAL_Delay(20);
 3491              		.loc 1 89 26 is_stmt 0 view .LVU1036
 3492 00aa 094B     		ldr	r3, .L184
 3493 00ac 0022     		movs	r2, #0
 3494 00ae 5A70     		strb	r2, [r3, #1]
  90:Core/Src/BNO055.c **** 	}
 3495              		.loc 1 90 3 is_stmt 1 view .LVU1037
 3496 00b0 1420     		movs	r0, #20
 3497              	.LVL322:
  90:Core/Src/BNO055.c **** 	}
 3498              		.loc 1 90 3 is_stmt 0 view .LVU1038
 3499 00b2 FFF7FEFF 		bl	HAL_Delay
 3500              	.LVL323:
 3501 00b6 AFE7     		b	.L173
 3502              	.LVL324:
 3503              	.L183:
 3504              	.LBB385:
 3505              	.LBB384:
  63:Core/Src/BNO055.c **** 		while(1);
 3506              		.loc 1 63 3 is_stmt 1 view .LVU1039
 3507 00b8 0122     		movs	r2, #1
 3508 00ba 2021     		movs	r1, #32
 3509 00bc 0648     		ldr	r0, .L184+8
 3510              	.LVL325:
  63:Core/Src/BNO055.c **** 		while(1);
 3511              		.loc 1 63 3 is_stmt 0 view .LVU1040
 3512 00be FFF7FEFF 		bl	HAL_GPIO_WritePin
 3513              	.LVL326:
 3514              	.L175:
  64:Core/Src/BNO055.c **** 	}
 3515              		.loc 1 64 3 is_stmt 1 view .LVU1041
  64:Core/Src/BNO055.c **** 	}
 3516              		.loc 1 64 8 view .LVU1042
 3517 00c2 FEE7     		b	.L175
 3518              	.LVL327:
 3519              	.L181:
  64:Core/Src/BNO055.c **** 	}
 3520              		.loc 1 64 8 is_stmt 0 view .LVU1043
 3521              	.LBE384:
 3522              	.LBE385:
 3523              	.LBE386:
 3524              	.LBE392:
 3525              	.LBB393:
 3526              	.LBB391:
  63:Core/Src/BNO055.c **** 		while(1);
 3527              		.loc 1 63 3 is_stmt 1 view .LVU1044
 3528 00c4 0122     		movs	r2, #1
 3529 00c6 2021     		movs	r1, #32
 3530 00c8 0348     		ldr	r0, .L184+8
 3531 00ca FFF7FEFF 		bl	HAL_GPIO_WritePin
 3532              	.LVL328:
 3533              	.L177:
ARM GAS  C:\Users\baske\AppData\Local\Temp\ccVCqxIy.s 			page 84


  64:Core/Src/BNO055.c **** 	}
 3534              		.loc 1 64 3 view .LVU1045
  64:Core/Src/BNO055.c **** 	}
 3535              		.loc 1 64 8 view .LVU1046
 3536 00ce FEE7     		b	.L177
 3537              	.L185:
 3538              		.align	2
 3539              	.L184:
 3540 00d0 00000000 		.word	.LANCHOR1
 3541 00d4 00000000 		.word	.LANCHOR0
 3542 00d8 00000240 		.word	1073872896
 3543              	.LBE391:
 3544              	.LBE393:
 3545              		.cfi_endproc
 3546              	.LFE145:
 3548              		.section	.text.BNO055_Get_Euler_Vec,"ax",%progbits
 3549              		.align	1
 3550              		.global	BNO055_Get_Euler_Vec
 3551              		.syntax unified
 3552              		.thumb
 3553              		.thumb_func
 3555              	BNO055_Get_Euler_Vec:
 3556              	.LVL329:
 3557              	.LFB146:
 379:Core/Src/BNO055.c **** 
 380:Core/Src/BNO055.c **** BNO055_ERROR BNO055_Get_Euler_Vec(BNO055_Axis_Vec_t* vec){
 3558              		.loc 1 380 58 view -0
 3559              		.cfi_startproc
 3560              		@ args = 0, pretend = 0, frame = 16
 3561              		@ frame_needed = 0, uses_anonymous_args = 0
 3562              		.loc 1 380 58 is_stmt 0 view .LVU1048
 3563 0000 F0B5     		push	{r4, r5, r6, r7, lr}
 3564              		.cfi_def_cfa_offset 20
 3565              		.cfi_offset 4, -20
 3566              		.cfi_offset 5, -16
 3567              		.cfi_offset 6, -12
 3568              		.cfi_offset 7, -8
 3569              		.cfi_offset 14, -4
 3570 0002 87B0     		sub	sp, sp, #28
 3571              		.cfi_def_cfa_offset 48
 3572 0004 0446     		mov	r4, r0
 381:Core/Src/BNO055.c **** 
 382:Core/Src/BNO055.c **** 	HAL_StatusTypeDef error;
 3573              		.loc 1 382 2 is_stmt 1 view .LVU1049
 383:Core/Src/BNO055.c **** 	uint8_t tempBuf[6];
 3574              		.loc 1 383 2 view .LVU1050
 384:Core/Src/BNO055.c **** 
 385:Core/Src/BNO055.c **** 	/* Makes sure BNO055 is in NDOF mode and Page 0 */
 386:Core/Src/BNO055.c **** 	BNO055_STATUS_CHECK_AND_SET(&state, NDOF, BNO055_PAGE_0);
 3575              		.loc 1 386 2 view .LVU1051
 3576              	.LVL330:
 3577              	.LBB408:
 3578              	.LBI408:
  73:Core/Src/BNO055.c **** 
 3579              		.loc 1 73 20 view .LVU1052
 3580              	.LBB409:
  75:Core/Src/BNO055.c **** 
ARM GAS  C:\Users\baske\AppData\Local\Temp\ccVCqxIy.s 			page 85


 3581              		.loc 1 75 2 view .LVU1053
  78:Core/Src/BNO055.c **** 		error = BNO055_Write(BNO055_OPR_MODE, newMode);
 3582              		.loc 1 78 2 view .LVU1054
  78:Core/Src/BNO055.c **** 		error = BNO055_Write(BNO055_OPR_MODE, newMode);
 3583              		.loc 1 78 14 is_stmt 0 view .LVU1055
 3584 0006 494B     		ldr	r3, .L201
 3585 0008 1B78     		ldrb	r3, [r3]	@ zero_extendqisi2
  78:Core/Src/BNO055.c **** 		error = BNO055_Write(BNO055_OPR_MODE, newMode);
 3586              		.loc 1 78 4 view .LVU1056
 3587 000a 0C2B     		cmp	r3, #12
 3588 000c 4DD1     		bne	.L196
 3589              	.LVL331:
 3590              	.L187:
  86:Core/Src/BNO055.c **** 		error = BNO055_Write(BNO055_PAGE_ID, newPage);
 3591              		.loc 1 86 2 is_stmt 1 view .LVU1057
  86:Core/Src/BNO055.c **** 		error = BNO055_Write(BNO055_PAGE_ID, newPage);
 3592              		.loc 1 86 14 is_stmt 0 view .LVU1058
 3593 000e 474B     		ldr	r3, .L201
 3594 0010 5B78     		ldrb	r3, [r3, #1]	@ zero_extendqisi2
  86:Core/Src/BNO055.c **** 		error = BNO055_Write(BNO055_PAGE_ID, newPage);
 3595              		.loc 1 86 4 view .LVU1059
 3596 0012 002B     		cmp	r3, #0
 3597 0014 66D1     		bne	.L197
 3598              	.L190:
 3599              	.LVL332:
  86:Core/Src/BNO055.c **** 		error = BNO055_Write(BNO055_PAGE_ID, newPage);
 3600              		.loc 1 86 4 view .LVU1060
 3601              	.LBE409:
 3602              	.LBE408:
 387:Core/Src/BNO055.c **** 
 388:Core/Src/BNO055.c **** 	/* Grab Euler Vector Data LSB and MSB */
 389:Core/Src/BNO055.c **** 	error = BNO055_Read(BNO055_EUL_HEADING_LSB, tempBuf, sizeof(tempBuf));
 3603              		.loc 1 389 2 is_stmt 1 view .LVU1061
 3604 0016 1A23     		movs	r3, #26
 3605 0018 8DF80C30 		strb	r3, [sp, #12]
 3606              	.LVL333:
 3607              	.LBB423:
 3608              	.LBI423:
  33:Core/Src/BNO055.c **** 
 3609              		.loc 1 33 33 view .LVU1062
 3610              	.LBB424:
  35:Core/Src/BNO055.c **** 
 3611              		.loc 1 35 2 view .LVU1063
  37:Core/Src/BNO055.c **** 	error |= HAL_I2C_Master_Receive(BNO055_I2C, BNO055_I2C_ADDR<<1, buf, len, BNO055_READ_TIMEOUT);
 3612              		.loc 1 37 2 view .LVU1064
  37:Core/Src/BNO055.c **** 	error |= HAL_I2C_Master_Receive(BNO055_I2C, BNO055_I2C_ADDR<<1, buf, len, BNO055_READ_TIMEOUT);
 3613              		.loc 1 37 10 is_stmt 0 view .LVU1065
 3614 001c 444E     		ldr	r6, .L201+4
 3615 001e 6427     		movs	r7, #100
 3616 0020 0097     		str	r7, [sp]
 3617 0022 0123     		movs	r3, #1
 3618              	.LVL334:
  37:Core/Src/BNO055.c **** 	error |= HAL_I2C_Master_Receive(BNO055_I2C, BNO055_I2C_ADDR<<1, buf, len, BNO055_READ_TIMEOUT);
 3619              		.loc 1 37 10 view .LVU1066
 3620 0024 03AA     		add	r2, sp, #12
 3621              	.LVL335:
  37:Core/Src/BNO055.c **** 	error |= HAL_I2C_Master_Receive(BNO055_I2C, BNO055_I2C_ADDR<<1, buf, len, BNO055_READ_TIMEOUT);
ARM GAS  C:\Users\baske\AppData\Local\Temp\ccVCqxIy.s 			page 86


 3622              		.loc 1 37 10 view .LVU1067
 3623 0026 5021     		movs	r1, #80
 3624 0028 3068     		ldr	r0, [r6]
 3625 002a FFF7FEFF 		bl	HAL_I2C_Master_Transmit
 3626              	.LVL336:
  37:Core/Src/BNO055.c **** 	error |= HAL_I2C_Master_Receive(BNO055_I2C, BNO055_I2C_ADDR<<1, buf, len, BNO055_READ_TIMEOUT);
 3627              		.loc 1 37 10 view .LVU1068
 3628 002e 0546     		mov	r5, r0
 3629              	.LVL337:
  38:Core/Src/BNO055.c **** 
 3630              		.loc 1 38 2 is_stmt 1 view .LVU1069
  38:Core/Src/BNO055.c **** 
 3631              		.loc 1 38 11 is_stmt 0 view .LVU1070
 3632 0030 0097     		str	r7, [sp]
 3633 0032 0623     		movs	r3, #6
 3634 0034 04AA     		add	r2, sp, #16
 3635              	.LVL338:
  38:Core/Src/BNO055.c **** 
 3636              		.loc 1 38 11 view .LVU1071
 3637 0036 5021     		movs	r1, #80
 3638 0038 3068     		ldr	r0, [r6]
 3639 003a FFF7FEFF 		bl	HAL_I2C_Master_Receive
 3640              	.LVL339:
  38:Core/Src/BNO055.c **** 
 3641              		.loc 1 38 8 view .LVU1072
 3642 003e 0543     		orrs	r5, r5, r0
 3643              	.LVL340:
  40:Core/Src/BNO055.c **** 
 3644              		.loc 1 40 2 is_stmt 1 view .LVU1073
  40:Core/Src/BNO055.c **** 
 3645              		.loc 1 40 2 is_stmt 0 view .LVU1074
 3646              	.LBE424:
 3647              	.LBE423:
 390:Core/Src/BNO055.c **** 	BNO055_ERROR_HANDLE(error);
 3648              		.loc 1 390 2 is_stmt 1 view .LVU1075
 3649              	.LBB425:
 3650              	.LBI425:
  61:Core/Src/BNO055.c **** 	if(error != HAL_OK){
 3651              		.loc 1 61 20 view .LVU1076
 3652              	.LBB426:
  62:Core/Src/BNO055.c **** 		HAL_GPIO_WritePin(LD2_GPIO_Port, LD2_Pin, GPIO_PIN_SET);
 3653              		.loc 1 62 2 view .LVU1077
  62:Core/Src/BNO055.c **** 		HAL_GPIO_WritePin(LD2_GPIO_Port, LD2_Pin, GPIO_PIN_SET);
 3654              		.loc 1 62 4 is_stmt 0 view .LVU1078
 3655 0040 15F0FF0F 		tst	r5, #255
 3656 0044 6BD1     		bne	.L198
 3657              	.LVL341:
  62:Core/Src/BNO055.c **** 		HAL_GPIO_WritePin(LD2_GPIO_Port, LD2_Pin, GPIO_PIN_SET);
 3658              		.loc 1 62 4 view .LVU1079
 3659              	.LBE426:
 3660              	.LBE425:
 391:Core/Src/BNO055.c **** 
 392:Core/Src/BNO055.c **** 	/* Parse Data Into Euler Vector Struct */
 393:Core/Src/BNO055.c **** 	vec->x = (int16_t)((tempBuf[1]<<8) | tempBuf[0]) / BNO055_EULER_DEGREE_SCALE;
 3661              		.loc 1 393 2 is_stmt 1 view .LVU1080
 3662              		.loc 1 393 29 is_stmt 0 view .LVU1081
 3663 0046 9DF81120 		ldrb	r2, [sp, #17]	@ zero_extendqisi2
ARM GAS  C:\Users\baske\AppData\Local\Temp\ccVCqxIy.s 			page 87


 3664              		.loc 1 393 46 view .LVU1082
 3665 004a 9DF81030 		ldrb	r3, [sp, #16]	@ zero_extendqisi2
 3666              		.loc 1 393 11 view .LVU1083
 3667 004e 43EA0223 		orr	r3, r3, r2, lsl #8
 3668 0052 1BB2     		sxth	r3, r3
 3669 0054 07EE903A 		vmov	s15, r3	@ int
 3670              		.loc 1 393 51 view .LVU1084
 3671 0058 F8EEE77A 		vcvt.f32.s32	s15, s15
 3672 005c 9FED357A 		vldr.32	s14, .L201+8
 3673 0060 67EE877A 		vmul.f32	s15, s15, s14
 3674              		.loc 1 393 9 view .LVU1085
 3675 0064 C4ED007A 		vstr.32	s15, [r4]
 394:Core/Src/BNO055.c **** 	vec->y = (int16_t)((tempBuf[3]<<8) | tempBuf[2]) / BNO055_EULER_DEGREE_SCALE;
 3676              		.loc 1 394 2 is_stmt 1 view .LVU1086
 3677              		.loc 1 394 29 is_stmt 0 view .LVU1087
 3678 0068 9DF81320 		ldrb	r2, [sp, #19]	@ zero_extendqisi2
 3679              		.loc 1 394 46 view .LVU1088
 3680 006c 9DF81230 		ldrb	r3, [sp, #18]	@ zero_extendqisi2
 3681              		.loc 1 394 11 view .LVU1089
 3682 0070 43EA0223 		orr	r3, r3, r2, lsl #8
 3683 0074 1BB2     		sxth	r3, r3
 3684 0076 07EE903A 		vmov	s15, r3	@ int
 3685              		.loc 1 394 51 view .LVU1090
 3686 007a F8EEE77A 		vcvt.f32.s32	s15, s15
 3687 007e 67EE877A 		vmul.f32	s15, s15, s14
 3688              		.loc 1 394 9 view .LVU1091
 3689 0082 C4ED017A 		vstr.32	s15, [r4, #4]
 395:Core/Src/BNO055.c **** 	vec->z = (int16_t)((tempBuf[5]<<8) | tempBuf[4]) / BNO055_EULER_DEGREE_SCALE;
 3690              		.loc 1 395 2 is_stmt 1 view .LVU1092
 3691              		.loc 1 395 29 is_stmt 0 view .LVU1093
 3692 0086 9DF81520 		ldrb	r2, [sp, #21]	@ zero_extendqisi2
 3693              		.loc 1 395 46 view .LVU1094
 3694 008a 9DF81430 		ldrb	r3, [sp, #20]	@ zero_extendqisi2
 3695              		.loc 1 395 11 view .LVU1095
 3696 008e 43EA0223 		orr	r3, r3, r2, lsl #8
 3697 0092 1BB2     		sxth	r3, r3
 3698 0094 07EE903A 		vmov	s15, r3	@ int
 3699              		.loc 1 395 51 view .LVU1096
 3700 0098 F8EEE77A 		vcvt.f32.s32	s15, s15
 3701 009c 67EE877A 		vmul.f32	s15, s15, s14
 3702              		.loc 1 395 9 view .LVU1097
 3703 00a0 C4ED027A 		vstr.32	s15, [r4, #8]
 396:Core/Src/BNO055.c **** 
 397:Core/Src/BNO055.c **** 	return BNO055_SUCCESS;
 3704              		.loc 1 397 2 is_stmt 1 view .LVU1098
 398:Core/Src/BNO055.c **** }
 3705              		.loc 1 398 1 is_stmt 0 view .LVU1099
 3706 00a4 0020     		movs	r0, #0
 3707 00a6 07B0     		add	sp, sp, #28
 3708              		.cfi_remember_state
 3709              		.cfi_def_cfa_offset 20
 3710              		@ sp needed
 3711 00a8 F0BD     		pop	{r4, r5, r6, r7, pc}
 3712              	.LVL342:
 3713              	.L196:
 3714              		.cfi_restore_state
 3715              	.LBB428:
ARM GAS  C:\Users\baske\AppData\Local\Temp\ccVCqxIy.s 			page 88


 3716              	.LBB422:
  79:Core/Src/BNO055.c **** 		BNO055_ERROR_HANDLE(error);
 3717              		.loc 1 79 3 is_stmt 1 view .LVU1100
 3718              	.LBB410:
 3719              	.LBI410:
  47:Core/Src/BNO055.c **** 
 3720              		.loc 1 47 33 view .LVU1101
 3721              	.LBB411:
  49:Core/Src/BNO055.c **** 	uint8_t transmitBuf[2] = {reg, data};
 3722              		.loc 1 49 2 view .LVU1102
  50:Core/Src/BNO055.c **** 
 3723              		.loc 1 50 2 view .LVU1103
  50:Core/Src/BNO055.c **** 
 3724              		.loc 1 50 10 is_stmt 0 view .LVU1104
 3725 00aa 3D23     		movs	r3, #61
 3726 00ac 8DF80C30 		strb	r3, [sp, #12]
 3727 00b0 0C23     		movs	r3, #12
 3728 00b2 8DF80D30 		strb	r3, [sp, #13]
  52:Core/Src/BNO055.c **** 
 3729              		.loc 1 52 2 is_stmt 1 view .LVU1105
  52:Core/Src/BNO055.c **** 
 3730              		.loc 1 52 10 is_stmt 0 view .LVU1106
 3731 00b6 6423     		movs	r3, #100
 3732 00b8 0093     		str	r3, [sp]
 3733 00ba 0223     		movs	r3, #2
 3734 00bc 03AA     		add	r2, sp, #12
 3735 00be 5021     		movs	r1, #80
 3736 00c0 1B48     		ldr	r0, .L201+4
 3737              	.LVL343:
  52:Core/Src/BNO055.c **** 
 3738              		.loc 1 52 10 view .LVU1107
 3739 00c2 0068     		ldr	r0, [r0]
 3740 00c4 FFF7FEFF 		bl	HAL_I2C_Master_Transmit
 3741              	.LVL344:
  54:Core/Src/BNO055.c **** 
 3742              		.loc 1 54 2 is_stmt 1 view .LVU1108
  54:Core/Src/BNO055.c **** 
 3743              		.loc 1 54 2 is_stmt 0 view .LVU1109
 3744              	.LBE411:
 3745              	.LBE410:
  80:Core/Src/BNO055.c **** 		currState->currentMode = newMode;
 3746              		.loc 1 80 3 is_stmt 1 view .LVU1110
 3747              	.LBB412:
 3748              	.LBI412:
  61:Core/Src/BNO055.c **** 	if(error != HAL_OK){
 3749              		.loc 1 61 20 view .LVU1111
 3750              	.LBB413:
  62:Core/Src/BNO055.c **** 		HAL_GPIO_WritePin(LD2_GPIO_Port, LD2_Pin, GPIO_PIN_SET);
 3751              		.loc 1 62 2 view .LVU1112
  62:Core/Src/BNO055.c **** 		HAL_GPIO_WritePin(LD2_GPIO_Port, LD2_Pin, GPIO_PIN_SET);
 3752              		.loc 1 62 4 is_stmt 0 view .LVU1113
 3753 00c8 30B9     		cbnz	r0, .L199
 3754              	.LVL345:
  62:Core/Src/BNO055.c **** 		HAL_GPIO_WritePin(LD2_GPIO_Port, LD2_Pin, GPIO_PIN_SET);
 3755              		.loc 1 62 4 view .LVU1114
 3756              	.LBE413:
 3757              	.LBE412:
ARM GAS  C:\Users\baske\AppData\Local\Temp\ccVCqxIy.s 			page 89


  81:Core/Src/BNO055.c **** 		HAL_Delay(20);
 3758              		.loc 1 81 3 is_stmt 1 view .LVU1115
  81:Core/Src/BNO055.c **** 		HAL_Delay(20);
 3759              		.loc 1 81 26 is_stmt 0 view .LVU1116
 3760 00ca 184B     		ldr	r3, .L201
 3761 00cc 0C22     		movs	r2, #12
 3762 00ce 1A70     		strb	r2, [r3]
  82:Core/Src/BNO055.c **** 	}
 3763              		.loc 1 82 3 is_stmt 1 view .LVU1117
 3764 00d0 1420     		movs	r0, #20
 3765              	.LVL346:
  82:Core/Src/BNO055.c **** 	}
 3766              		.loc 1 82 3 is_stmt 0 view .LVU1118
 3767 00d2 FFF7FEFF 		bl	HAL_Delay
 3768              	.LVL347:
 3769 00d6 9AE7     		b	.L187
 3770              	.LVL348:
 3771              	.L199:
 3772              	.LBB415:
 3773              	.LBB414:
  63:Core/Src/BNO055.c **** 		while(1);
 3774              		.loc 1 63 3 is_stmt 1 view .LVU1119
 3775 00d8 0122     		movs	r2, #1
 3776 00da 2021     		movs	r1, #32
 3777 00dc 1648     		ldr	r0, .L201+12
 3778              	.LVL349:
  63:Core/Src/BNO055.c **** 		while(1);
 3779              		.loc 1 63 3 is_stmt 0 view .LVU1120
 3780 00de FFF7FEFF 		bl	HAL_GPIO_WritePin
 3781              	.LVL350:
 3782              	.L189:
  64:Core/Src/BNO055.c **** 	}
 3783              		.loc 1 64 3 is_stmt 1 view .LVU1121
  64:Core/Src/BNO055.c **** 	}
 3784              		.loc 1 64 8 view .LVU1122
 3785 00e2 FEE7     		b	.L189
 3786              	.L197:
  64:Core/Src/BNO055.c **** 	}
 3787              		.loc 1 64 8 is_stmt 0 view .LVU1123
 3788              	.LBE414:
 3789              	.LBE415:
  87:Core/Src/BNO055.c **** 		BNO055_ERROR_HANDLE(error);
 3790              		.loc 1 87 3 is_stmt 1 view .LVU1124
 3791              	.LVL351:
 3792              	.LBB416:
 3793              	.LBI416:
  47:Core/Src/BNO055.c **** 
 3794              		.loc 1 47 33 view .LVU1125
 3795              	.LBB417:
  49:Core/Src/BNO055.c **** 	uint8_t transmitBuf[2] = {reg, data};
 3796              		.loc 1 49 2 view .LVU1126
  50:Core/Src/BNO055.c **** 
 3797              		.loc 1 50 2 view .LVU1127
  50:Core/Src/BNO055.c **** 
 3798              		.loc 1 50 10 is_stmt 0 view .LVU1128
 3799 00e4 0723     		movs	r3, #7
 3800 00e6 8DF80C30 		strb	r3, [sp, #12]
ARM GAS  C:\Users\baske\AppData\Local\Temp\ccVCqxIy.s 			page 90


 3801 00ea 0023     		movs	r3, #0
 3802 00ec 8DF80D30 		strb	r3, [sp, #13]
  52:Core/Src/BNO055.c **** 
 3803              		.loc 1 52 2 is_stmt 1 view .LVU1129
  52:Core/Src/BNO055.c **** 
 3804              		.loc 1 52 10 is_stmt 0 view .LVU1130
 3805 00f0 6423     		movs	r3, #100
 3806 00f2 0093     		str	r3, [sp]
 3807 00f4 0223     		movs	r3, #2
 3808 00f6 03AA     		add	r2, sp, #12
 3809 00f8 5021     		movs	r1, #80
 3810 00fa 0D48     		ldr	r0, .L201+4
 3811 00fc 0068     		ldr	r0, [r0]
 3812 00fe FFF7FEFF 		bl	HAL_I2C_Master_Transmit
 3813              	.LVL352:
  54:Core/Src/BNO055.c **** 
 3814              		.loc 1 54 2 is_stmt 1 view .LVU1131
  54:Core/Src/BNO055.c **** 
 3815              		.loc 1 54 2 is_stmt 0 view .LVU1132
 3816              	.LBE417:
 3817              	.LBE416:
  88:Core/Src/BNO055.c **** 		currState->currentPage = newPage;
 3818              		.loc 1 88 3 is_stmt 1 view .LVU1133
 3819              	.LBB418:
 3820              	.LBI418:
  61:Core/Src/BNO055.c **** 	if(error != HAL_OK){
 3821              		.loc 1 61 20 view .LVU1134
 3822              	.LBB419:
  62:Core/Src/BNO055.c **** 		HAL_GPIO_WritePin(LD2_GPIO_Port, LD2_Pin, GPIO_PIN_SET);
 3823              		.loc 1 62 2 view .LVU1135
  62:Core/Src/BNO055.c **** 		HAL_GPIO_WritePin(LD2_GPIO_Port, LD2_Pin, GPIO_PIN_SET);
 3824              		.loc 1 62 4 is_stmt 0 view .LVU1136
 3825 0102 30B9     		cbnz	r0, .L200
 3826              	.LVL353:
  62:Core/Src/BNO055.c **** 		HAL_GPIO_WritePin(LD2_GPIO_Port, LD2_Pin, GPIO_PIN_SET);
 3827              		.loc 1 62 4 view .LVU1137
 3828              	.LBE419:
 3829              	.LBE418:
  89:Core/Src/BNO055.c **** 		HAL_Delay(20);
 3830              		.loc 1 89 3 is_stmt 1 view .LVU1138
  89:Core/Src/BNO055.c **** 		HAL_Delay(20);
 3831              		.loc 1 89 26 is_stmt 0 view .LVU1139
 3832 0104 094B     		ldr	r3, .L201
 3833 0106 0022     		movs	r2, #0
 3834 0108 5A70     		strb	r2, [r3, #1]
  90:Core/Src/BNO055.c **** 	}
 3835              		.loc 1 90 3 is_stmt 1 view .LVU1140
 3836 010a 1420     		movs	r0, #20
 3837              	.LVL354:
  90:Core/Src/BNO055.c **** 	}
 3838              		.loc 1 90 3 is_stmt 0 view .LVU1141
 3839 010c FFF7FEFF 		bl	HAL_Delay
 3840              	.LVL355:
 3841 0110 81E7     		b	.L190
 3842              	.LVL356:
 3843              	.L200:
 3844              	.LBB421:
ARM GAS  C:\Users\baske\AppData\Local\Temp\ccVCqxIy.s 			page 91


 3845              	.LBB420:
  63:Core/Src/BNO055.c **** 		while(1);
 3846              		.loc 1 63 3 is_stmt 1 view .LVU1142
 3847 0112 0122     		movs	r2, #1
 3848 0114 2021     		movs	r1, #32
 3849 0116 0848     		ldr	r0, .L201+12
 3850              	.LVL357:
  63:Core/Src/BNO055.c **** 		while(1);
 3851              		.loc 1 63 3 is_stmt 0 view .LVU1143
 3852 0118 FFF7FEFF 		bl	HAL_GPIO_WritePin
 3853              	.LVL358:
 3854              	.L192:
  64:Core/Src/BNO055.c **** 	}
 3855              		.loc 1 64 3 is_stmt 1 view .LVU1144
  64:Core/Src/BNO055.c **** 	}
 3856              		.loc 1 64 8 view .LVU1145
 3857 011c FEE7     		b	.L192
 3858              	.LVL359:
 3859              	.L198:
  64:Core/Src/BNO055.c **** 	}
 3860              		.loc 1 64 8 is_stmt 0 view .LVU1146
 3861              	.LBE420:
 3862              	.LBE421:
 3863              	.LBE422:
 3864              	.LBE428:
 3865              	.LBB429:
 3866              	.LBB427:
  63:Core/Src/BNO055.c **** 		while(1);
 3867              		.loc 1 63 3 is_stmt 1 view .LVU1147
 3868 011e 0122     		movs	r2, #1
 3869 0120 2021     		movs	r1, #32
 3870 0122 0548     		ldr	r0, .L201+12
 3871 0124 FFF7FEFF 		bl	HAL_GPIO_WritePin
 3872              	.LVL360:
 3873              	.L194:
  64:Core/Src/BNO055.c **** 	}
 3874              		.loc 1 64 3 view .LVU1148
  64:Core/Src/BNO055.c **** 	}
 3875              		.loc 1 64 8 view .LVU1149
 3876 0128 FEE7     		b	.L194
 3877              	.L202:
 3878 012a 00BF     		.align	2
 3879              	.L201:
 3880 012c 00000000 		.word	.LANCHOR1
 3881 0130 00000000 		.word	.LANCHOR0
 3882 0134 0000803D 		.word	1031798784
 3883 0138 00000240 		.word	1073872896
 3884              	.LBE427:
 3885              	.LBE429:
 3886              		.cfi_endproc
 3887              	.LFE146:
 3889              		.section	.text.BNO055_Get_Quaternion,"ax",%progbits
 3890              		.align	1
 3891              		.global	BNO055_Get_Quaternion
 3892              		.syntax unified
 3893              		.thumb
 3894              		.thumb_func
ARM GAS  C:\Users\baske\AppData\Local\Temp\ccVCqxIy.s 			page 92


 3896              	BNO055_Get_Quaternion:
 3897              	.LVL361:
 3898              	.LFB147:
 399:Core/Src/BNO055.c **** 
 400:Core/Src/BNO055.c **** BNO055_ERROR BNO055_Get_Quaternion(BNO055_Quad_Vec_t* vec){
 3899              		.loc 1 400 59 view -0
 3900              		.cfi_startproc
 3901              		@ args = 0, pretend = 0, frame = 16
 3902              		@ frame_needed = 0, uses_anonymous_args = 0
 3903              		.loc 1 400 59 is_stmt 0 view .LVU1151
 3904 0000 F0B5     		push	{r4, r5, r6, r7, lr}
 3905              		.cfi_def_cfa_offset 20
 3906              		.cfi_offset 4, -20
 3907              		.cfi_offset 5, -16
 3908              		.cfi_offset 6, -12
 3909              		.cfi_offset 7, -8
 3910              		.cfi_offset 14, -4
 3911 0002 87B0     		sub	sp, sp, #28
 3912              		.cfi_def_cfa_offset 48
 3913 0004 0446     		mov	r4, r0
 401:Core/Src/BNO055.c **** 
 402:Core/Src/BNO055.c **** 	HAL_StatusTypeDef error;
 3914              		.loc 1 402 2 is_stmt 1 view .LVU1152
 403:Core/Src/BNO055.c **** 	uint8_t tempBuf[8];
 3915              		.loc 1 403 2 view .LVU1153
 404:Core/Src/BNO055.c **** 
 405:Core/Src/BNO055.c **** 	/* Makes sure BNO055 is in NDOF mode and Page 0 */
 406:Core/Src/BNO055.c **** 	BNO055_STATUS_CHECK_AND_SET(&state, NDOF, BNO055_PAGE_0);
 3916              		.loc 1 406 2 view .LVU1154
 3917              	.LVL362:
 3918              	.LBB444:
 3919              	.LBI444:
  73:Core/Src/BNO055.c **** 
 3920              		.loc 1 73 20 view .LVU1155
 3921              	.LBB445:
  75:Core/Src/BNO055.c **** 
 3922              		.loc 1 75 2 view .LVU1156
  78:Core/Src/BNO055.c **** 		error = BNO055_Write(BNO055_OPR_MODE, newMode);
 3923              		.loc 1 78 2 view .LVU1157
  78:Core/Src/BNO055.c **** 		error = BNO055_Write(BNO055_OPR_MODE, newMode);
 3924              		.loc 1 78 14 is_stmt 0 view .LVU1158
 3925 0006 574B     		ldr	r3, .L218
 3926 0008 1B78     		ldrb	r3, [r3]	@ zero_extendqisi2
  78:Core/Src/BNO055.c **** 		error = BNO055_Write(BNO055_OPR_MODE, newMode);
 3927              		.loc 1 78 4 view .LVU1159
 3928 000a 0C2B     		cmp	r3, #12
 3929 000c 69D1     		bne	.L213
 3930              	.LVL363:
 3931              	.L204:
  86:Core/Src/BNO055.c **** 		error = BNO055_Write(BNO055_PAGE_ID, newPage);
 3932              		.loc 1 86 2 is_stmt 1 view .LVU1160
  86:Core/Src/BNO055.c **** 		error = BNO055_Write(BNO055_PAGE_ID, newPage);
 3933              		.loc 1 86 14 is_stmt 0 view .LVU1161
 3934 000e 554B     		ldr	r3, .L218
 3935 0010 5B78     		ldrb	r3, [r3, #1]	@ zero_extendqisi2
  86:Core/Src/BNO055.c **** 		error = BNO055_Write(BNO055_PAGE_ID, newPage);
 3936              		.loc 1 86 4 view .LVU1162
ARM GAS  C:\Users\baske\AppData\Local\Temp\ccVCqxIy.s 			page 93


 3937 0012 002B     		cmp	r3, #0
 3938 0014 40F08280 		bne	.L214
 3939              	.L207:
 3940              	.LVL364:
  86:Core/Src/BNO055.c **** 		error = BNO055_Write(BNO055_PAGE_ID, newPage);
 3941              		.loc 1 86 4 view .LVU1163
 3942              	.LBE445:
 3943              	.LBE444:
 407:Core/Src/BNO055.c **** 
 408:Core/Src/BNO055.c **** 	/* Grab Quaternion Vector LSB and MSB data */
 409:Core/Src/BNO055.c **** 	error = BNO055_Read(BNO055_QUA_DATA_W_LSB, tempBuf, sizeof(tempBuf));
 3944              		.loc 1 409 2 is_stmt 1 view .LVU1164
 3945 0018 2023     		movs	r3, #32
 3946 001a 8DF80C30 		strb	r3, [sp, #12]
 3947              	.LVL365:
 3948              	.LBB459:
 3949              	.LBI459:
  33:Core/Src/BNO055.c **** 
 3950              		.loc 1 33 33 view .LVU1165
 3951              	.LBB460:
  35:Core/Src/BNO055.c **** 
 3952              		.loc 1 35 2 view .LVU1166
  37:Core/Src/BNO055.c **** 	error |= HAL_I2C_Master_Receive(BNO055_I2C, BNO055_I2C_ADDR<<1, buf, len, BNO055_READ_TIMEOUT);
 3953              		.loc 1 37 2 view .LVU1167
  37:Core/Src/BNO055.c **** 	error |= HAL_I2C_Master_Receive(BNO055_I2C, BNO055_I2C_ADDR<<1, buf, len, BNO055_READ_TIMEOUT);
 3954              		.loc 1 37 10 is_stmt 0 view .LVU1168
 3955 001e 524E     		ldr	r6, .L218+4
 3956 0020 6427     		movs	r7, #100
 3957 0022 0097     		str	r7, [sp]
 3958 0024 0123     		movs	r3, #1
 3959              	.LVL366:
  37:Core/Src/BNO055.c **** 	error |= HAL_I2C_Master_Receive(BNO055_I2C, BNO055_I2C_ADDR<<1, buf, len, BNO055_READ_TIMEOUT);
 3960              		.loc 1 37 10 view .LVU1169
 3961 0026 03AA     		add	r2, sp, #12
 3962              	.LVL367:
  37:Core/Src/BNO055.c **** 	error |= HAL_I2C_Master_Receive(BNO055_I2C, BNO055_I2C_ADDR<<1, buf, len, BNO055_READ_TIMEOUT);
 3963              		.loc 1 37 10 view .LVU1170
 3964 0028 5021     		movs	r1, #80
 3965 002a 3068     		ldr	r0, [r6]
 3966 002c FFF7FEFF 		bl	HAL_I2C_Master_Transmit
 3967              	.LVL368:
  37:Core/Src/BNO055.c **** 	error |= HAL_I2C_Master_Receive(BNO055_I2C, BNO055_I2C_ADDR<<1, buf, len, BNO055_READ_TIMEOUT);
 3968              		.loc 1 37 10 view .LVU1171
 3969 0030 0546     		mov	r5, r0
 3970              	.LVL369:
  38:Core/Src/BNO055.c **** 
 3971              		.loc 1 38 2 is_stmt 1 view .LVU1172
  38:Core/Src/BNO055.c **** 
 3972              		.loc 1 38 11 is_stmt 0 view .LVU1173
 3973 0032 0097     		str	r7, [sp]
 3974 0034 0823     		movs	r3, #8
 3975 0036 04AA     		add	r2, sp, #16
 3976              	.LVL370:
  38:Core/Src/BNO055.c **** 
 3977              		.loc 1 38 11 view .LVU1174
 3978 0038 5021     		movs	r1, #80
 3979 003a 3068     		ldr	r0, [r6]
ARM GAS  C:\Users\baske\AppData\Local\Temp\ccVCqxIy.s 			page 94


 3980 003c FFF7FEFF 		bl	HAL_I2C_Master_Receive
 3981              	.LVL371:
  38:Core/Src/BNO055.c **** 
 3982              		.loc 1 38 8 view .LVU1175
 3983 0040 0543     		orrs	r5, r5, r0
 3984              	.LVL372:
  40:Core/Src/BNO055.c **** 
 3985              		.loc 1 40 2 is_stmt 1 view .LVU1176
  40:Core/Src/BNO055.c **** 
 3986              		.loc 1 40 2 is_stmt 0 view .LVU1177
 3987              	.LBE460:
 3988              	.LBE459:
 410:Core/Src/BNO055.c **** 	BNO055_ERROR_HANDLE(error);
 3989              		.loc 1 410 2 is_stmt 1 view .LVU1178
 3990              	.LBB461:
 3991              	.LBI461:
  61:Core/Src/BNO055.c **** 	if(error != HAL_OK){
 3992              		.loc 1 61 20 view .LVU1179
 3993              	.LBB462:
  62:Core/Src/BNO055.c **** 		HAL_GPIO_WritePin(LD2_GPIO_Port, LD2_Pin, GPIO_PIN_SET);
 3994              		.loc 1 62 2 view .LVU1180
  62:Core/Src/BNO055.c **** 		HAL_GPIO_WritePin(LD2_GPIO_Port, LD2_Pin, GPIO_PIN_SET);
 3995              		.loc 1 62 4 is_stmt 0 view .LVU1181
 3996 0042 15F0FF0F 		tst	r5, #255
 3997 0046 40F08680 		bne	.L215
 3998              	.LVL373:
  62:Core/Src/BNO055.c **** 		HAL_GPIO_WritePin(LD2_GPIO_Port, LD2_Pin, GPIO_PIN_SET);
 3999              		.loc 1 62 4 view .LVU1182
 4000              	.LBE462:
 4001              	.LBE461:
 411:Core/Src/BNO055.c **** 
 412:Core/Src/BNO055.c **** 	/* Parse Data Into Quad Vector Struct */
 413:Core/Src/BNO055.c **** 	vec->w = (int16_t)((tempBuf[1]<<8) | tempBuf[0]) / BNO055_QUATERNION_SCALE;
 4002              		.loc 1 413 2 is_stmt 1 view .LVU1183
 4003              		.loc 1 413 29 is_stmt 0 view .LVU1184
 4004 004a 9DF81120 		ldrb	r2, [sp, #17]	@ zero_extendqisi2
 4005              		.loc 1 413 46 view .LVU1185
 4006 004e 9DF81030 		ldrb	r3, [sp, #16]	@ zero_extendqisi2
 4007              		.loc 1 413 11 view .LVU1186
 4008 0052 43EA0223 		orr	r3, r3, r2, lsl #8
 4009 0056 1BB2     		sxth	r3, r3
 4010              		.loc 1 413 51 view .LVU1187
 4011 0058 444A     		ldr	r2, .L218+8
 4012 005a 82FB0301 		smull	r0, r1, r2, r3
 4013 005e DB17     		asrs	r3, r3, #31
 4014 0060 C3EBA133 		rsb	r3, r3, r1, asr #14
 4015              		.loc 1 413 9 view .LVU1188
 4016 0064 07EE903A 		vmov	s15, r3	@ int
 4017 0068 F8EEE77A 		vcvt.f32.s32	s15, s15
 4018 006c C4ED007A 		vstr.32	s15, [r4]
 414:Core/Src/BNO055.c **** 	vec->x = (int16_t)((tempBuf[3]<<8) | tempBuf[2]) / BNO055_QUATERNION_SCALE;
 4019              		.loc 1 414 2 is_stmt 1 view .LVU1189
 4020              		.loc 1 414 29 is_stmt 0 view .LVU1190
 4021 0070 9DF81310 		ldrb	r1, [sp, #19]	@ zero_extendqisi2
 4022              		.loc 1 414 46 view .LVU1191
 4023 0074 9DF81230 		ldrb	r3, [sp, #18]	@ zero_extendqisi2
 4024              		.loc 1 414 11 view .LVU1192
ARM GAS  C:\Users\baske\AppData\Local\Temp\ccVCqxIy.s 			page 95


 4025 0078 43EA0123 		orr	r3, r3, r1, lsl #8
 4026 007c 1BB2     		sxth	r3, r3
 4027              		.loc 1 414 51 view .LVU1193
 4028 007e 82FB0301 		smull	r0, r1, r2, r3
 4029 0082 DB17     		asrs	r3, r3, #31
 4030 0084 C3EBA133 		rsb	r3, r3, r1, asr #14
 4031              		.loc 1 414 9 view .LVU1194
 4032 0088 07EE903A 		vmov	s15, r3	@ int
 4033 008c F8EEE77A 		vcvt.f32.s32	s15, s15
 4034 0090 C4ED017A 		vstr.32	s15, [r4, #4]
 415:Core/Src/BNO055.c **** 	vec->y = (int16_t)((tempBuf[5]<<8) | tempBuf[4]) / BNO055_QUATERNION_SCALE;
 4035              		.loc 1 415 2 is_stmt 1 view .LVU1195
 4036              		.loc 1 415 29 is_stmt 0 view .LVU1196
 4037 0094 9DF81510 		ldrb	r1, [sp, #21]	@ zero_extendqisi2
 4038              		.loc 1 415 46 view .LVU1197
 4039 0098 9DF81430 		ldrb	r3, [sp, #20]	@ zero_extendqisi2
 4040              		.loc 1 415 11 view .LVU1198
 4041 009c 43EA0123 		orr	r3, r3, r1, lsl #8
 4042 00a0 1BB2     		sxth	r3, r3
 4043              		.loc 1 415 51 view .LVU1199
 4044 00a2 82FB0301 		smull	r0, r1, r2, r3
 4045 00a6 DB17     		asrs	r3, r3, #31
 4046 00a8 C3EBA133 		rsb	r3, r3, r1, asr #14
 4047              		.loc 1 415 9 view .LVU1200
 4048 00ac 07EE903A 		vmov	s15, r3	@ int
 4049 00b0 F8EEE77A 		vcvt.f32.s32	s15, s15
 4050 00b4 C4ED027A 		vstr.32	s15, [r4, #8]
 416:Core/Src/BNO055.c **** 	vec->z = (int16_t)((tempBuf[7]<<8) | tempBuf[6]) / BNO055_QUATERNION_SCALE;
 4051              		.loc 1 416 2 is_stmt 1 view .LVU1201
 4052              		.loc 1 416 29 is_stmt 0 view .LVU1202
 4053 00b8 9DF81710 		ldrb	r1, [sp, #23]	@ zero_extendqisi2
 4054              		.loc 1 416 46 view .LVU1203
 4055 00bc 9DF81630 		ldrb	r3, [sp, #22]	@ zero_extendqisi2
 4056              		.loc 1 416 11 view .LVU1204
 4057 00c0 43EA0123 		orr	r3, r3, r1, lsl #8
 4058 00c4 1BB2     		sxth	r3, r3
 4059              		.loc 1 416 51 view .LVU1205
 4060 00c6 82FB0312 		smull	r1, r2, r2, r3
 4061 00ca DB17     		asrs	r3, r3, #31
 4062 00cc C3EBA233 		rsb	r3, r3, r2, asr #14
 4063              		.loc 1 416 9 view .LVU1206
 4064 00d0 07EE903A 		vmov	s15, r3	@ int
 4065 00d4 F8EEE77A 		vcvt.f32.s32	s15, s15
 4066 00d8 C4ED037A 		vstr.32	s15, [r4, #12]
 417:Core/Src/BNO055.c **** 
 418:Core/Src/BNO055.c **** 	return BNO055_SUCCESS;
 4067              		.loc 1 418 2 is_stmt 1 view .LVU1207
 419:Core/Src/BNO055.c **** }
 4068              		.loc 1 419 1 is_stmt 0 view .LVU1208
 4069 00dc 0020     		movs	r0, #0
 4070 00de 07B0     		add	sp, sp, #28
 4071              		.cfi_remember_state
 4072              		.cfi_def_cfa_offset 20
 4073              		@ sp needed
 4074 00e0 F0BD     		pop	{r4, r5, r6, r7, pc}
 4075              	.LVL374:
 4076              	.L213:
ARM GAS  C:\Users\baske\AppData\Local\Temp\ccVCqxIy.s 			page 96


 4077              		.cfi_restore_state
 4078              	.LBB464:
 4079              	.LBB458:
  79:Core/Src/BNO055.c **** 		BNO055_ERROR_HANDLE(error);
 4080              		.loc 1 79 3 is_stmt 1 view .LVU1209
 4081              	.LBB446:
 4082              	.LBI446:
  47:Core/Src/BNO055.c **** 
 4083              		.loc 1 47 33 view .LVU1210
 4084              	.LBB447:
  49:Core/Src/BNO055.c **** 	uint8_t transmitBuf[2] = {reg, data};
 4085              		.loc 1 49 2 view .LVU1211
  50:Core/Src/BNO055.c **** 
 4086              		.loc 1 50 2 view .LVU1212
  50:Core/Src/BNO055.c **** 
 4087              		.loc 1 50 10 is_stmt 0 view .LVU1213
 4088 00e2 3D23     		movs	r3, #61
 4089 00e4 8DF80C30 		strb	r3, [sp, #12]
 4090 00e8 0C23     		movs	r3, #12
 4091 00ea 8DF80D30 		strb	r3, [sp, #13]
  52:Core/Src/BNO055.c **** 
 4092              		.loc 1 52 2 is_stmt 1 view .LVU1214
  52:Core/Src/BNO055.c **** 
 4093              		.loc 1 52 10 is_stmt 0 view .LVU1215
 4094 00ee 6423     		movs	r3, #100
 4095 00f0 0093     		str	r3, [sp]
 4096 00f2 0223     		movs	r3, #2
 4097 00f4 03AA     		add	r2, sp, #12
 4098 00f6 5021     		movs	r1, #80
 4099 00f8 1B48     		ldr	r0, .L218+4
 4100              	.LVL375:
  52:Core/Src/BNO055.c **** 
 4101              		.loc 1 52 10 view .LVU1216
 4102 00fa 0068     		ldr	r0, [r0]
 4103 00fc FFF7FEFF 		bl	HAL_I2C_Master_Transmit
 4104              	.LVL376:
  54:Core/Src/BNO055.c **** 
 4105              		.loc 1 54 2 is_stmt 1 view .LVU1217
  54:Core/Src/BNO055.c **** 
 4106              		.loc 1 54 2 is_stmt 0 view .LVU1218
 4107              	.LBE447:
 4108              	.LBE446:
  80:Core/Src/BNO055.c **** 		currState->currentMode = newMode;
 4109              		.loc 1 80 3 is_stmt 1 view .LVU1219
 4110              	.LBB448:
 4111              	.LBI448:
  61:Core/Src/BNO055.c **** 	if(error != HAL_OK){
 4112              		.loc 1 61 20 view .LVU1220
 4113              	.LBB449:
  62:Core/Src/BNO055.c **** 		HAL_GPIO_WritePin(LD2_GPIO_Port, LD2_Pin, GPIO_PIN_SET);
 4114              		.loc 1 62 2 view .LVU1221
  62:Core/Src/BNO055.c **** 		HAL_GPIO_WritePin(LD2_GPIO_Port, LD2_Pin, GPIO_PIN_SET);
 4115              		.loc 1 62 4 is_stmt 0 view .LVU1222
 4116 0100 30B9     		cbnz	r0, .L216
 4117              	.LVL377:
  62:Core/Src/BNO055.c **** 		HAL_GPIO_WritePin(LD2_GPIO_Port, LD2_Pin, GPIO_PIN_SET);
 4118              		.loc 1 62 4 view .LVU1223
ARM GAS  C:\Users\baske\AppData\Local\Temp\ccVCqxIy.s 			page 97


 4119              	.LBE449:
 4120              	.LBE448:
  81:Core/Src/BNO055.c **** 		HAL_Delay(20);
 4121              		.loc 1 81 3 is_stmt 1 view .LVU1224
  81:Core/Src/BNO055.c **** 		HAL_Delay(20);
 4122              		.loc 1 81 26 is_stmt 0 view .LVU1225
 4123 0102 184B     		ldr	r3, .L218
 4124 0104 0C22     		movs	r2, #12
 4125 0106 1A70     		strb	r2, [r3]
  82:Core/Src/BNO055.c **** 	}
 4126              		.loc 1 82 3 is_stmt 1 view .LVU1226
 4127 0108 1420     		movs	r0, #20
 4128              	.LVL378:
  82:Core/Src/BNO055.c **** 	}
 4129              		.loc 1 82 3 is_stmt 0 view .LVU1227
 4130 010a FFF7FEFF 		bl	HAL_Delay
 4131              	.LVL379:
 4132 010e 7EE7     		b	.L204
 4133              	.LVL380:
 4134              	.L216:
 4135              	.LBB451:
 4136              	.LBB450:
  63:Core/Src/BNO055.c **** 		while(1);
 4137              		.loc 1 63 3 is_stmt 1 view .LVU1228
 4138 0110 0122     		movs	r2, #1
 4139 0112 2021     		movs	r1, #32
 4140 0114 1648     		ldr	r0, .L218+12
 4141              	.LVL381:
  63:Core/Src/BNO055.c **** 		while(1);
 4142              		.loc 1 63 3 is_stmt 0 view .LVU1229
 4143 0116 FFF7FEFF 		bl	HAL_GPIO_WritePin
 4144              	.LVL382:
 4145              	.L206:
  64:Core/Src/BNO055.c **** 	}
 4146              		.loc 1 64 3 is_stmt 1 view .LVU1230
  64:Core/Src/BNO055.c **** 	}
 4147              		.loc 1 64 8 view .LVU1231
 4148 011a FEE7     		b	.L206
 4149              	.L214:
  64:Core/Src/BNO055.c **** 	}
 4150              		.loc 1 64 8 is_stmt 0 view .LVU1232
 4151              	.LBE450:
 4152              	.LBE451:
  87:Core/Src/BNO055.c **** 		BNO055_ERROR_HANDLE(error);
 4153              		.loc 1 87 3 is_stmt 1 view .LVU1233
 4154              	.LVL383:
 4155              	.LBB452:
 4156              	.LBI452:
  47:Core/Src/BNO055.c **** 
 4157              		.loc 1 47 33 view .LVU1234
 4158              	.LBB453:
  49:Core/Src/BNO055.c **** 	uint8_t transmitBuf[2] = {reg, data};
 4159              		.loc 1 49 2 view .LVU1235
  50:Core/Src/BNO055.c **** 
 4160              		.loc 1 50 2 view .LVU1236
  50:Core/Src/BNO055.c **** 
 4161              		.loc 1 50 10 is_stmt 0 view .LVU1237
ARM GAS  C:\Users\baske\AppData\Local\Temp\ccVCqxIy.s 			page 98


 4162 011c 0723     		movs	r3, #7
 4163 011e 8DF80C30 		strb	r3, [sp, #12]
 4164 0122 0023     		movs	r3, #0
 4165 0124 8DF80D30 		strb	r3, [sp, #13]
  52:Core/Src/BNO055.c **** 
 4166              		.loc 1 52 2 is_stmt 1 view .LVU1238
  52:Core/Src/BNO055.c **** 
 4167              		.loc 1 52 10 is_stmt 0 view .LVU1239
 4168 0128 6423     		movs	r3, #100
 4169 012a 0093     		str	r3, [sp]
 4170 012c 0223     		movs	r3, #2
 4171 012e 03AA     		add	r2, sp, #12
 4172 0130 5021     		movs	r1, #80
 4173 0132 0D48     		ldr	r0, .L218+4
 4174 0134 0068     		ldr	r0, [r0]
 4175 0136 FFF7FEFF 		bl	HAL_I2C_Master_Transmit
 4176              	.LVL384:
  54:Core/Src/BNO055.c **** 
 4177              		.loc 1 54 2 is_stmt 1 view .LVU1240
  54:Core/Src/BNO055.c **** 
 4178              		.loc 1 54 2 is_stmt 0 view .LVU1241
 4179              	.LBE453:
 4180              	.LBE452:
  88:Core/Src/BNO055.c **** 		currState->currentPage = newPage;
 4181              		.loc 1 88 3 is_stmt 1 view .LVU1242
 4182              	.LBB454:
 4183              	.LBI454:
  61:Core/Src/BNO055.c **** 	if(error != HAL_OK){
 4184              		.loc 1 61 20 view .LVU1243
 4185              	.LBB455:
  62:Core/Src/BNO055.c **** 		HAL_GPIO_WritePin(LD2_GPIO_Port, LD2_Pin, GPIO_PIN_SET);
 4186              		.loc 1 62 2 view .LVU1244
  62:Core/Src/BNO055.c **** 		HAL_GPIO_WritePin(LD2_GPIO_Port, LD2_Pin, GPIO_PIN_SET);
 4187              		.loc 1 62 4 is_stmt 0 view .LVU1245
 4188 013a 30B9     		cbnz	r0, .L217
 4189              	.LVL385:
  62:Core/Src/BNO055.c **** 		HAL_GPIO_WritePin(LD2_GPIO_Port, LD2_Pin, GPIO_PIN_SET);
 4190              		.loc 1 62 4 view .LVU1246
 4191              	.LBE455:
 4192              	.LBE454:
  89:Core/Src/BNO055.c **** 		HAL_Delay(20);
 4193              		.loc 1 89 3 is_stmt 1 view .LVU1247
  89:Core/Src/BNO055.c **** 		HAL_Delay(20);
 4194              		.loc 1 89 26 is_stmt 0 view .LVU1248
 4195 013c 094B     		ldr	r3, .L218
 4196 013e 0022     		movs	r2, #0
 4197 0140 5A70     		strb	r2, [r3, #1]
  90:Core/Src/BNO055.c **** 	}
 4198              		.loc 1 90 3 is_stmt 1 view .LVU1249
 4199 0142 1420     		movs	r0, #20
 4200              	.LVL386:
  90:Core/Src/BNO055.c **** 	}
 4201              		.loc 1 90 3 is_stmt 0 view .LVU1250
 4202 0144 FFF7FEFF 		bl	HAL_Delay
 4203              	.LVL387:
 4204 0148 66E7     		b	.L207
 4205              	.LVL388:
ARM GAS  C:\Users\baske\AppData\Local\Temp\ccVCqxIy.s 			page 99


 4206              	.L217:
 4207              	.LBB457:
 4208              	.LBB456:
  63:Core/Src/BNO055.c **** 		while(1);
 4209              		.loc 1 63 3 is_stmt 1 view .LVU1251
 4210 014a 0122     		movs	r2, #1
 4211 014c 2021     		movs	r1, #32
 4212 014e 0848     		ldr	r0, .L218+12
 4213              	.LVL389:
  63:Core/Src/BNO055.c **** 		while(1);
 4214              		.loc 1 63 3 is_stmt 0 view .LVU1252
 4215 0150 FFF7FEFF 		bl	HAL_GPIO_WritePin
 4216              	.LVL390:
 4217              	.L209:
  64:Core/Src/BNO055.c **** 	}
 4218              		.loc 1 64 3 is_stmt 1 view .LVU1253
  64:Core/Src/BNO055.c **** 	}
 4219              		.loc 1 64 8 view .LVU1254
 4220 0154 FEE7     		b	.L209
 4221              	.LVL391:
 4222              	.L215:
  64:Core/Src/BNO055.c **** 	}
 4223              		.loc 1 64 8 is_stmt 0 view .LVU1255
 4224              	.LBE456:
 4225              	.LBE457:
 4226              	.LBE458:
 4227              	.LBE464:
 4228              	.LBB465:
 4229              	.LBB463:
  63:Core/Src/BNO055.c **** 		while(1);
 4230              		.loc 1 63 3 is_stmt 1 view .LVU1256
 4231 0156 0122     		movs	r2, #1
 4232 0158 2021     		movs	r1, #32
 4233 015a 0548     		ldr	r0, .L218+12
 4234 015c FFF7FEFF 		bl	HAL_GPIO_WritePin
 4235              	.LVL392:
 4236              	.L211:
  64:Core/Src/BNO055.c **** 	}
 4237              		.loc 1 64 3 view .LVU1257
  64:Core/Src/BNO055.c **** 	}
 4238              		.loc 1 64 8 view .LVU1258
 4239 0160 FEE7     		b	.L211
 4240              	.L219:
 4241 0162 00BF     		.align	2
 4242              	.L218:
 4243 0164 00000000 		.word	.LANCHOR1
 4244 0168 00000000 		.word	.LANCHOR0
 4245 016c 01C4FF0F 		.word	268420097
 4246 0170 00000240 		.word	1073872896
 4247              	.LBE463:
 4248              	.LBE465:
 4249              		.cfi_endproc
 4250              	.LFE147:
 4252              		.global	state
 4253              		.global	BNO055_I2C
 4254              		.section	.bss.BNO055_I2C,"aw",%nobits
 4255              		.align	2
ARM GAS  C:\Users\baske\AppData\Local\Temp\ccVCqxIy.s 			page 100


 4256              		.set	.LANCHOR0,. + 0
 4259              	BNO055_I2C:
 4260 0000 00000000 		.space	4
 4261              		.section	.bss.state,"aw",%nobits
 4262              		.align	2
 4263              		.set	.LANCHOR1,. + 0
 4266              	state:
 4267 0000 0000     		.space	2
 4268              		.text
 4269              	.Letext0:
 4270              		.file 2 "c:\\users\\baske\\appdata\\roaming\\code\\user\\globalstorage\\bmd.stm32-for-vscode\\@xpa
 4271              		.file 3 "c:\\users\\baske\\appdata\\roaming\\code\\user\\globalstorage\\bmd.stm32-for-vscode\\@xpa
 4272              		.file 4 "Drivers/CMSIS/Device/ST/STM32F4xx/Include/stm32f446xx.h"
 4273              		.file 5 "Drivers/STM32F4xx_HAL_Driver/Inc/stm32f4xx_hal_def.h"
 4274              		.file 6 "Drivers/STM32F4xx_HAL_Driver/Inc/stm32f4xx_hal_gpio.h"
 4275              		.file 7 "Drivers/STM32F4xx_HAL_Driver/Inc/stm32f4xx_hal_dma.h"
 4276              		.file 8 "Drivers/STM32F4xx_HAL_Driver/Inc/stm32f4xx_hal_i2c.h"
 4277              		.file 9 "Core/Inc/BNO055.h"
 4278              		.file 10 "Drivers/STM32F4xx_HAL_Driver/Inc/stm32f4xx_hal.h"
ARM GAS  C:\Users\baske\AppData\Local\Temp\ccVCqxIy.s 			page 101


DEFINED SYMBOLS
                            *ABS*:0000000000000000 BNO055.c
C:\Users\baske\AppData\Local\Temp\ccVCqxIy.s:20     .text.BNO055_I2C_Mount:0000000000000000 $t
C:\Users\baske\AppData\Local\Temp\ccVCqxIy.s:26     .text.BNO055_I2C_Mount:0000000000000000 BNO055_I2C_Mount
C:\Users\baske\AppData\Local\Temp\ccVCqxIy.s:44     .text.BNO055_I2C_Mount:0000000000000008 $d
C:\Users\baske\AppData\Local\Temp\ccVCqxIy.s:49     .text.BNO055_Init:0000000000000000 $t
C:\Users\baske\AppData\Local\Temp\ccVCqxIy.s:55     .text.BNO055_Init:0000000000000000 BNO055_Init
C:\Users\baske\AppData\Local\Temp\ccVCqxIy.s:371    .text.BNO055_Init:00000000000000fc $d
C:\Users\baske\AppData\Local\Temp\ccVCqxIy.s:380    .text.BNO055_Set_Unit:0000000000000000 $t
C:\Users\baske\AppData\Local\Temp\ccVCqxIy.s:386    .text.BNO055_Set_Unit:0000000000000000 BNO055_Set_Unit
C:\Users\baske\AppData\Local\Temp\ccVCqxIy.s:669    .text.BNO055_Set_Unit:00000000000000d0 $d
C:\Users\baske\AppData\Local\Temp\ccVCqxIy.s:678    .text.BNO055_Set_OP_Mode:0000000000000000 $t
C:\Users\baske\AppData\Local\Temp\ccVCqxIy.s:684    .text.BNO055_Set_OP_Mode:0000000000000000 BNO055_Set_OP_Mode
C:\Users\baske\AppData\Local\Temp\ccVCqxIy.s:714    .text.BNO055_Set_OP_Mode:0000000000000018 $d
C:\Users\baske\AppData\Local\Temp\ccVCqxIy.s:727    .text.BNO055_Set_OP_Mode:0000000000000030 $t
C:\Users\baske\AppData\Local\Temp\ccVCqxIy.s:1223   .text.BNO055_Set_OP_Mode:0000000000000208 $d
C:\Users\baske\AppData\Local\Temp\ccVCqxIy.s:1232   .text.BNO055_Set_Axis:0000000000000000 $t
C:\Users\baske\AppData\Local\Temp\ccVCqxIy.s:1238   .text.BNO055_Set_Axis:0000000000000000 BNO055_Set_Axis
C:\Users\baske\AppData\Local\Temp\ccVCqxIy.s:1519   .text.BNO055_Set_Axis:00000000000000d4 $d
C:\Users\baske\AppData\Local\Temp\ccVCqxIy.s:1528   .text.BNO055_Calibrate:0000000000000000 $t
C:\Users\baske\AppData\Local\Temp\ccVCqxIy.s:1534   .text.BNO055_Calibrate:0000000000000000 BNO055_Calibrate
C:\Users\baske\AppData\Local\Temp\ccVCqxIy.s:1549   .text.BNO055_Get_Accel:0000000000000000 $t
C:\Users\baske\AppData\Local\Temp\ccVCqxIy.s:1555   .text.BNO055_Get_Accel:0000000000000000 BNO055_Get_Accel
C:\Users\baske\AppData\Local\Temp\ccVCqxIy.s:1880   .text.BNO055_Get_Accel:000000000000012c $d
C:\Users\baske\AppData\Local\Temp\ccVCqxIy.s:1890   .text.BNO055_Get_Gyro:0000000000000000 $t
C:\Users\baske\AppData\Local\Temp\ccVCqxIy.s:1896   .text.BNO055_Get_Gyro:0000000000000000 BNO055_Get_Gyro
C:\Users\baske\AppData\Local\Temp\ccVCqxIy.s:2221   .text.BNO055_Get_Gyro:000000000000012c $d
C:\Users\baske\AppData\Local\Temp\ccVCqxIy.s:2231   .text.BNO055_Get_Mag:0000000000000000 $t
C:\Users\baske\AppData\Local\Temp\ccVCqxIy.s:2237   .text.BNO055_Get_Mag:0000000000000000 BNO055_Get_Mag
C:\Users\baske\AppData\Local\Temp\ccVCqxIy.s:2562   .text.BNO055_Get_Mag:000000000000012c $d
C:\Users\baske\AppData\Local\Temp\ccVCqxIy.s:2572   .text.BNO055_Get_Linear_Accel:0000000000000000 $t
C:\Users\baske\AppData\Local\Temp\ccVCqxIy.s:2578   .text.BNO055_Get_Linear_Accel:0000000000000000 BNO055_Get_Linear_Accel
C:\Users\baske\AppData\Local\Temp\ccVCqxIy.s:2903   .text.BNO055_Get_Linear_Accel:000000000000012c $d
C:\Users\baske\AppData\Local\Temp\ccVCqxIy.s:2913   .text.BNO055_Get_Gravity_Vec:0000000000000000 $t
C:\Users\baske\AppData\Local\Temp\ccVCqxIy.s:2919   .text.BNO055_Get_Gravity_Vec:0000000000000000 BNO055_Get_Gravity_Vec
C:\Users\baske\AppData\Local\Temp\ccVCqxIy.s:3244   .text.BNO055_Get_Gravity_Vec:000000000000012c $d
C:\Users\baske\AppData\Local\Temp\ccVCqxIy.s:3254   .text.BNO055_Get_Temp:0000000000000000 $t
C:\Users\baske\AppData\Local\Temp\ccVCqxIy.s:3260   .text.BNO055_Get_Temp:0000000000000000 BNO055_Get_Temp
C:\Users\baske\AppData\Local\Temp\ccVCqxIy.s:3540   .text.BNO055_Get_Temp:00000000000000d0 $d
C:\Users\baske\AppData\Local\Temp\ccVCqxIy.s:3549   .text.BNO055_Get_Euler_Vec:0000000000000000 $t
C:\Users\baske\AppData\Local\Temp\ccVCqxIy.s:3555   .text.BNO055_Get_Euler_Vec:0000000000000000 BNO055_Get_Euler_Vec
C:\Users\baske\AppData\Local\Temp\ccVCqxIy.s:3880   .text.BNO055_Get_Euler_Vec:000000000000012c $d
C:\Users\baske\AppData\Local\Temp\ccVCqxIy.s:3890   .text.BNO055_Get_Quaternion:0000000000000000 $t
C:\Users\baske\AppData\Local\Temp\ccVCqxIy.s:3896   .text.BNO055_Get_Quaternion:0000000000000000 BNO055_Get_Quaternion
C:\Users\baske\AppData\Local\Temp\ccVCqxIy.s:4243   .text.BNO055_Get_Quaternion:0000000000000164 $d
C:\Users\baske\AppData\Local\Temp\ccVCqxIy.s:4266   .bss.state:0000000000000000 state
C:\Users\baske\AppData\Local\Temp\ccVCqxIy.s:4259   .bss.BNO055_I2C:0000000000000000 BNO055_I2C
C:\Users\baske\AppData\Local\Temp\ccVCqxIy.s:4255   .bss.BNO055_I2C:0000000000000000 $d
C:\Users\baske\AppData\Local\Temp\ccVCqxIy.s:4262   .bss.state:0000000000000000 $d

UNDEFINED SYMBOLS
HAL_I2C_Master_Transmit
HAL_I2C_Master_Receive
HAL_GPIO_WritePin
HAL_Delay
